ARM GAS  C:\Users\29237\AppData\Local\Temp\ccJtdqFt.s 			page 1


   1              		.cpu cortex-m4
   2              		.arch armv7e-m
   3              		.fpu fpv4-sp-d16
   4              		.eabi_attribute 27, 1
   5              		.eabi_attribute 28, 1
   6              		.eabi_attribute 20, 1
   7              		.eabi_attribute 21, 1
   8              		.eabi_attribute 23, 3
   9              		.eabi_attribute 24, 1
  10              		.eabi_attribute 25, 1
  11              		.eabi_attribute 26, 1
  12              		.eabi_attribute 30, 1
  13              		.eabi_attribute 34, 1
  14              		.eabi_attribute 18, 4
  15              		.file	"bmi088.c"
  16              		.text
  17              	.Ltext0:
  18              		.cfi_sections	.debug_frame
  19              		.file 1 "modules/BMI088/bmi088.c"
  20              		.section	.text.BMI088AccSPIFinishCallback,"ax",%progbits
  21              		.align	1
  22              		.syntax unified
  23              		.thumb
  24              		.thumb_func
  26              	BMI088AccSPIFinishCallback:
  27              	.LVL0:
  28              	.LFB282:
   1:modules/BMI088/bmi088.c **** #include "bmi088_regNdef.h"
   2:modules/BMI088/bmi088.c **** #include "bmi088.h"
   3:modules/BMI088/bmi088.c **** #include "user_lib.h"
   4:modules/BMI088/bmi088.c **** #include "daemon.h"
   5:modules/BMI088/bmi088.c **** 
   6:modules/BMI088/bmi088.c **** static DaemonInstance *bmi088_daemon_instance;
   7:modules/BMI088/bmi088.c **** 
   8:modules/BMI088/bmi088.c **** // ---------------------------‰ª•‰∏ãÁßÅÊúâÂáΩÊï∞,Áî®‰∫éËØªÂÜôBMI088ÂØÑÂ≠òÂô®Â∞ÅË£Ö,blocking--------
   9:modules/BMI088/bmi088.c **** /**
  10:modules/BMI088/bmi088.c ****  * @brief ËØªÂèñBMI088ÂØÑÂ≠òÂô®Accel. BMI088Ë¶ÅÊ±ÇÂú®‰∏çÈáäÊîæCSÁöÑÊÉÖÂÜµ‰∏ãËøûÁª≠ËØªÂèñ
  11:modules/BMI088/bmi088.c ****  *
  12:modules/BMI088/bmi088.c ****  * @param bmi088 ÂæÖËØªÂèñÁöÑBMI088ÂÆû‰æã
  13:modules/BMI088/bmi088.c ****  * @param reg ÂæÖËØªÂèñÁöÑÂØÑÂ≠òÂô®Âú∞ÂùÄ
  14:modules/BMI088/bmi088.c ****  * @param dataptr ËØªÂèñÂà∞ÁöÑÊï∞ÊçÆÂ≠òÊîæÁöÑÊåáÈíà
  15:modules/BMI088/bmi088.c ****  * @param len ËØªÂèñÈïøÂ∫¶
  16:modules/BMI088/bmi088.c ****  */
  17:modules/BMI088/bmi088.c **** static void BMI088AccelRead(BMI088Instance *bmi088, uint8_t reg, uint8_t *dataptr, uint8_t len)
  18:modules/BMI088/bmi088.c **** {
  19:modules/BMI088/bmi088.c ****     if (len > 6)
  20:modules/BMI088/bmi088.c ****         while (1)
  21:modules/BMI088/bmi088.c ****             ;
  22:modules/BMI088/bmi088.c ****     // ‰∏ÄÊ¨°ËØªÂèñÊúÄÂ§ö6‰∏™Â≠óËäÇ,Âä†‰∏ä‰∏§‰∏™dummy data    Á¨¨‰∏Ä‰∏™Â≠óËäÇÁöÑÁ¨¨‰∏Ä‰∏™‰ΩçÊòØËØªÂ
  23:modules/BMI088/bmi088.c ****     static uint8_t tx[8]; // ËØªÂèñ,Á¨¨‰∏Ä‰∏™Â≠óËäÇ‰∏∫0x80|reg ,Á¨¨‰∫å‰∏™ÊòØdummy data,ÂêéÈù¢ÁöÑÊ≤°
  24:modules/BMI088/bmi088.c ****     static uint8_t rx[8]; // Ââç‰∏§‰∏™Â≠óËäÇÊòØdummy data,Á¨¨‰∏â‰∏™ÂºÄÂßãÊòØÁúüÊ≠£ÁöÑÊï∞ÊçÆ
  25:modules/BMI088/bmi088.c ****     tx[0] = 0x80 | reg;   // ÈùôÊÄÅÂèòÈáèÊØèÊ¨°ËøõÊù•ËøòÊòØ‰∏äÊ¨°ÁöÑÂÄº,ÊâÄ‰ª•Ë¶ÅÊØèÊ¨°ÈÉΩË¶ÅÁªôtx[
  26:modules/BMI088/bmi088.c ****     SPITransRecv(bmi088->spi_acc, rx, tx, len + 2);
  27:modules/BMI088/bmi088.c ****     memcpy(dataptr, rx + 2, len); // @todo : memcpyÊúâÈ¢ùÂ§ñÂºÄÈîÄ,ÂêéÁª≠ÂèØ‰ª•ËÄÉËôë‰ºòÂåñ,Âú®SPI‰
  28:modules/BMI088/bmi088.c **** }
  29:modules/BMI088/bmi088.c **** 
  30:modules/BMI088/bmi088.c **** /**
ARM GAS  C:\Users\29237\AppData\Local\Temp\ccJtdqFt.s 			page 2


  31:modules/BMI088/bmi088.c ****  * @brief ËØªÂèñBMI088ÂØÑÂ≠òÂô®Gyro, BMI088Ë¶ÅÊ±ÇÂú®‰∏çÈáäÊîæCSÁöÑÊÉÖÂÜµ‰∏ãËøûÁª≠ËØªÂèñ
  32:modules/BMI088/bmi088.c ****  *
  33:modules/BMI088/bmi088.c ****  * @param bmi088 ÂæÖËØªÂèñÁöÑBMI088ÂÆû‰æã
  34:modules/BMI088/bmi088.c ****  * @param reg  ÂæÖËØªÂèñÁöÑÂØÑÂ≠òÂô®Âú∞ÂùÄ
  35:modules/BMI088/bmi088.c ****  * @param dataptr ËØªÂèñÂà∞ÁöÑÊï∞ÊçÆÂ≠òÊîæÁöÑÊåáÈíà
  36:modules/BMI088/bmi088.c ****  * @param len ËØªÂèñÈïøÂ∫¶
  37:modules/BMI088/bmi088.c ****  */
  38:modules/BMI088/bmi088.c **** static void BMI088GyroRead(BMI088Instance *bmi088, uint8_t reg, uint8_t *dataptr, uint8_t len)
  39:modules/BMI088/bmi088.c **** {
  40:modules/BMI088/bmi088.c ****     if (len > 6)
  41:modules/BMI088/bmi088.c ****         while (1)
  42:modules/BMI088/bmi088.c ****             ;
  43:modules/BMI088/bmi088.c ****     // ‰∏ÄÊ¨°ËØªÂèñÊúÄÂ§ö6‰∏™Â≠óËäÇ,Âä†‰∏ä‰∏Ä‰∏™dummy data  ,Á¨¨‰∏Ä‰∏™Â≠óËäÇÁöÑÁ¨¨‰∏Ä‰∏™‰ΩçÊòØËØªÂÜ
  44:modules/BMI088/bmi088.c ****     static uint8_t tx[7] = {0x80}; // ËØªÂèñ,Á¨¨‰∏Ä‰∏™Â≠óËäÇ‰∏∫0x80 | reg ,‰πãÂêéÊòØdummy data
  45:modules/BMI088/bmi088.c ****     static uint8_t rx[7];          // Á¨¨‰∏Ä‰∏™ÊòØdummy data,Á¨¨‰∏â‰∏™ÂºÄÂßãÊòØÁúüÊ≠£ÁöÑÊï∞ÊçÆ
  46:modules/BMI088/bmi088.c ****     
  47:modules/BMI088/bmi088.c ****     tx[0] = 0x80 | reg;
  48:modules/BMI088/bmi088.c ****     SPITransRecv(bmi088->spi_gyro, rx, tx, len + 1);
  49:modules/BMI088/bmi088.c ****     memcpy(dataptr, rx + 1, len); // @todo : memcpyÊúâÈ¢ùÂ§ñÂºÄÈîÄ,ÂêéÁª≠ÂèØ‰ª•ËÄÉËôë‰ºòÂåñ,Âú®SPI‰
  50:modules/BMI088/bmi088.c **** }
  51:modules/BMI088/bmi088.c **** 
  52:modules/BMI088/bmi088.c **** /**
  53:modules/BMI088/bmi088.c ****  * @brief ÂÜôaccelÂØÑÂ≠òÂô®.ÂØπspitransmitÂΩ¢Âºè‰∏äÁöÑÂ∞ÅË£Ö
  54:modules/BMI088/bmi088.c ****  * @attention Âè™‰ºöÂêëÁõÆÊ†áregÂÜôÂÖ•‰∏Ä‰∏™Â≠óËäÇ,Âõ†‰∏∫Âè™Êúâ1‰∏™Â≠óËäÇÊâÄ‰ª•Áõ¥Êé•‰º†ÂÄº(ÊåáÈíàÊ
  55:modules/BMI088/bmi088.c ****  *
  56:modules/BMI088/bmi088.c ****  * @param bmi088 ÂæÖÂÜôÂÖ•ÁöÑBMI088ÂÆû‰æã
  57:modules/BMI088/bmi088.c ****  * @param reg  ÂæÖÂÜôÂÖ•ÁöÑÂØÑÂ≠òÂô®Âú∞ÂùÄ
  58:modules/BMI088/bmi088.c ****  * @param data ÂæÖÂÜôÂÖ•ÁöÑÊï∞ÊçÆ(Ê≥®ÊÑè‰∏çÊòØÊåáÈíà)
  59:modules/BMI088/bmi088.c ****  */
  60:modules/BMI088/bmi088.c **** static void BMI088AccelWriteSingleReg(BMI088Instance *bmi088, uint8_t reg, uint8_t data)
  61:modules/BMI088/bmi088.c **** {
  62:modules/BMI088/bmi088.c ****     uint8_t tx[2] = {reg, data};
  63:modules/BMI088/bmi088.c ****     SPITransmit(bmi088->spi_acc, tx, 2);
  64:modules/BMI088/bmi088.c **** }
  65:modules/BMI088/bmi088.c **** 
  66:modules/BMI088/bmi088.c **** /**
  67:modules/BMI088/bmi088.c ****  * @brief ÂÜôgyroÂØÑÂ≠òÂô®.ÂΩ¢Âºè‰∏äÁöÑÂ∞ÅË£Ö
  68:modules/BMI088/bmi088.c ****  * @attention Âè™‰ºöÂêëÁõÆÊ†áregÂÜôÂÖ•‰∏Ä‰∏™Â≠óËäÇ,Âõ†‰∏∫Âè™Êúâ1‰∏™Â≠óËäÇÊâÄ‰ª•Áõ¥Êé•‰º†ÂÄº(ÊåáÈíàÊ
  69:modules/BMI088/bmi088.c ****  *
  70:modules/BMI088/bmi088.c ****  * @param bmi088 ÂæÖÂÜôÂÖ•ÁöÑBMI088ÂÆû‰æã
  71:modules/BMI088/bmi088.c ****  * @param reg  ÂæÖÂÜôÂÖ•ÁöÑÂØÑÂ≠òÂô®Âú∞ÂùÄ
  72:modules/BMI088/bmi088.c ****  * @param data ÂæÖÂÜôÂÖ•ÁöÑÊï∞ÊçÆ(Ê≥®ÊÑè‰∏çÊòØÊåáÈíà)
  73:modules/BMI088/bmi088.c ****  */
  74:modules/BMI088/bmi088.c **** static void BMI088GyroWriteSingleReg(BMI088Instance *bmi088, uint8_t reg, uint8_t data)
  75:modules/BMI088/bmi088.c **** {
  76:modules/BMI088/bmi088.c ****     uint8_t tx[2] = {reg, data};
  77:modules/BMI088/bmi088.c ****     SPITransmit(bmi088->spi_gyro, tx, 2);
  78:modules/BMI088/bmi088.c **** }
  79:modules/BMI088/bmi088.c **** // -------------------------‰ª•‰∏ä‰∏∫ÁßÅÊúâÂáΩÊï∞,Â∞ÅË£Ö‰∫ÜBMI088ÂØÑÂ≠òÂô®ËØªÂÜôÂáΩÊï∞,blocking----
  80:modules/BMI088/bmi088.c **** 
  81:modules/BMI088/bmi088.c **** // -------------------------‰ª•‰∏ã‰∏∫ÁßÅÊúâÂáΩÊï∞,Áî®‰∫éÂàùÂßãÂåñBMI088accÂíågyroÁöÑÁ°¨‰ª∂ÂíåÈÖçÁΩÆ
  82:modules/BMI088/bmi088.c **** #define BMI088REG 0
  83:modules/BMI088/bmi088.c **** #define BMI088DATA 1
  84:modules/BMI088/bmi088.c **** #define BMI088ERROR 2
  85:modules/BMI088/bmi088.c **** // BMI088ÂàùÂßãÂåñÈÖçÁΩÆÊï∞ÁªÑfor accel,Á¨¨‰∏ÄÂàó‰∏∫regÂú∞ÂùÄ,Á¨¨‰∫åÂàó‰∏∫ÂÜôÂÖ•ÁöÑÈÖçÁΩÆÂÄº,Á¨¨‰∏â
  86:modules/BMI088/bmi088.c **** static uint8_t BMI088_Accel_Init_Table[BMI088_WRITE_ACCEL_REG_NUM][3] =
  87:modules/BMI088/bmi088.c ****     {
ARM GAS  C:\Users\29237\AppData\Local\Temp\ccJtdqFt.s 			page 3


  88:modules/BMI088/bmi088.c ****         {BMI088_ACC_PWR_CTRL, BMI088_ACC_ENABLE_ACC_ON, BMI088_ACC_PWR_CTRL_ERROR},
  89:modules/BMI088/bmi088.c ****         {BMI088_ACC_PWR_CONF, BMI088_ACC_PWR_ACTIVE_MODE, BMI088_ACC_PWR_CONF_ERROR},
  90:modules/BMI088/bmi088.c ****         {BMI088_ACC_CONF, BMI088_ACC_NORMAL | BMI088_ACC_800_HZ | BMI088_ACC_CONF_MUST_Set, BMI088_
  91:modules/BMI088/bmi088.c ****         {BMI088_ACC_RANGE, BMI088_ACC_RANGE_6G, BMI088_ACC_RANGE_ERROR},
  92:modules/BMI088/bmi088.c ****         {BMI088_INT1_IO_CTRL, BMI088_ACC_INT1_IO_ENABLE | BMI088_ACC_INT1_GPIO_PP | BMI088_ACC_INT1
  93:modules/BMI088/bmi088.c ****         {BMI088_INT_MAP_DATA, BMI088_ACC_INT1_DRDY_INTERRUPT, BMI088_INT_MAP_DATA_ERROR}};
  94:modules/BMI088/bmi088.c **** // BMI088ÂàùÂßãÂåñÈÖçÁΩÆÊï∞ÁªÑfor gyro,Á¨¨‰∏ÄÂàó‰∏∫regÂú∞ÂùÄ,Á¨¨‰∫åÂàó‰∏∫ÂÜôÂÖ•ÁöÑÈÖçÁΩÆÂÄº,Á¨¨‰∏âÂ
  95:modules/BMI088/bmi088.c **** static uint8_t BMI088_Gyro_Init_Table[BMI088_WRITE_GYRO_REG_NUM][3] =
  96:modules/BMI088/bmi088.c ****     {
  97:modules/BMI088/bmi088.c ****         {BMI088_GYRO_RANGE, BMI088_GYRO_2000, BMI088_GYRO_RANGE_ERROR},
  98:modules/BMI088/bmi088.c ****         {BMI088_GYRO_BANDWIDTH, BMI088_GYRO_1000_116_HZ | BMI088_GYRO_BANDWIDTH_MUST_Set, BMI088_GY
  99:modules/BMI088/bmi088.c ****         {BMI088_GYRO_LPM1, BMI088_GYRO_NORMAL_MODE, BMI088_GYRO_LPM1_ERROR},
 100:modules/BMI088/bmi088.c ****         {BMI088_GYRO_CTRL, BMI088_DRDY_ON, BMI088_GYRO_CTRL_ERROR},
 101:modules/BMI088/bmi088.c ****         {BMI088_GYRO_INT3_INT4_IO_CONF, BMI088_GYRO_INT3_GPIO_PP | BMI088_GYRO_INT3_GPIO_LOW, BMI08
 102:modules/BMI088/bmi088.c ****         {BMI088_GYRO_INT3_INT4_IO_MAP, BMI088_GYRO_DRDY_IO_INT3, BMI088_GYRO_INT3_INT4_IO_MAP_ERROR
 103:modules/BMI088/bmi088.c **** // @attention : ‰ª•‰∏ä‰∏§‰∏™Êï∞ÁªÑÈÖçÂêàÂêÑËá™ÁöÑÂàùÂßãÂåñÂáΩÊï∞‰ΩøÁî®. Ëã•Ë¶Å‰øÆÊîπËØ∑ÂèÇÁÖßBMI088
 104:modules/BMI088/bmi088.c **** 
 105:modules/BMI088/bmi088.c **** /**
 106:modules/BMI088/bmi088.c ****  * @brief ÂàùÂßãÂåñBMI088Âä†ÈÄüÂ∫¶ËÆ°,ÊèêÈ´òÂèØËØªÊÄßÂàÜÊãÜÂäüËÉΩ
 107:modules/BMI088/bmi088.c ****  *
 108:modules/BMI088/bmi088.c ****  * @param bmi088 ÂæÖÂàùÂßãÂåñÁöÑBMI088ÂÆû‰æã
 109:modules/BMI088/bmi088.c ****  * @return uint8_t BMI088ERROR CODE if any problems here
 110:modules/BMI088/bmi088.c ****  */
 111:modules/BMI088/bmi088.c **** static uint8_t BMI088AccelInit(BMI088Instance *bmi088)
 112:modules/BMI088/bmi088.c **** {
 113:modules/BMI088/bmi088.c ****     uint8_t whoami_check = 0;
 114:modules/BMI088/bmi088.c **** 
 115:modules/BMI088/bmi088.c ****     // Âä†ÈÄüÂ∫¶ËÆ°‰ª•I2CÊ®°ÂºèÂêØÂä®,ÈúÄË¶Å‰∏ÄÊ¨°‰∏äÂçáÊ≤øÊù•ÂàáÊç¢Âà∞SPIÊ®°Âºè,Âõ†Ê≠§ËøõË°å‰∏ÄÊ¨°
 116:modules/BMI088/bmi088.c ****     BMI088AccelRead(bmi088, BMI088_ACC_CHIP_ID, &whoami_check, 1);
 117:modules/BMI088/bmi088.c ****     DWT_Delay(0.001);
 118:modules/BMI088/bmi088.c **** 
 119:modules/BMI088/bmi088.c ****     BMI088AccelWriteSingleReg(bmi088, BMI088_ACC_SOFTRESET, BMI088_ACC_SOFTRESET_VALUE); // ËΩØÂ§ç‰
 120:modules/BMI088/bmi088.c ****     DWT_Delay(BMI088_COM_WAIT_SENSOR_TIME / 1000);
 121:modules/BMI088/bmi088.c **** 
 122:modules/BMI088/bmi088.c ****     // Ê£ÄÊü•ID,Â¶ÇÊûú‰∏çÊòØ0x1E(bmi088 whoamiÂØÑÂ≠òÂô®ÂÄº),ÂàôËøîÂõûÈîôËØØ
 123:modules/BMI088/bmi088.c ****     BMI088AccelRead(bmi088, BMI088_ACC_CHIP_ID, &whoami_check, 1);
 124:modules/BMI088/bmi088.c ****     if (whoami_check != BMI088_ACC_CHIP_ID_VALUE)
 125:modules/BMI088/bmi088.c ****         return BMI088_NO_SENSOR;
 126:modules/BMI088/bmi088.c ****     DWT_Delay(0.001);
 127:modules/BMI088/bmi088.c ****     // ÂàùÂßãÂåñÂØÑÂ≠òÂô®,ÊèêÈ´òÂèØËØªÊÄß
 128:modules/BMI088/bmi088.c ****     uint8_t reg = 0, data = 0;
 129:modules/BMI088/bmi088.c ****     BMI088_ERORR_CODE_e error = 0;
 130:modules/BMI088/bmi088.c ****     // ‰ΩøÁî®sizeofËÄå‰∏çÊòØmagic number,ËøôÊ†∑Â¶ÇÊûú‰øÆÊîπ‰∫ÜÊï∞ÁªÑÂ§ßÂ∞è,‰∏çÁî®‰øÆÊîπËøôÈáåÁöÑ‰ª£
 131:modules/BMI088/bmi088.c ****     for (uint8_t i = 0; i < sizeof(BMI088_Accel_Init_Table) / sizeof(BMI088_Accel_Init_Table[0]); i
 132:modules/BMI088/bmi088.c ****     {
 133:modules/BMI088/bmi088.c ****         reg = BMI088_Accel_Init_Table[i][BMI088REG];
 134:modules/BMI088/bmi088.c ****         data = BMI088_Accel_Init_Table[i][BMI088DATA];
 135:modules/BMI088/bmi088.c ****         BMI088AccelWriteSingleReg(bmi088, reg, data); // ÂÜôÂÖ•ÂØÑÂ≠òÂô®
 136:modules/BMI088/bmi088.c ****         DWT_Delay(0.01);
 137:modules/BMI088/bmi088.c ****         BMI088AccelRead(bmi088, reg, &data, 1); // ÂÜôÂÆå‰πãÂêéÁ´ãÂàªËØªÂõûÊ£ÄÊü•
 138:modules/BMI088/bmi088.c ****         DWT_Delay(0.01);
 139:modules/BMI088/bmi088.c ****         if (data != BMI088_Accel_Init_Table[i][BMI088DATA])
 140:modules/BMI088/bmi088.c ****             error |= BMI088_Accel_Init_Table[i][BMI088ERROR];
 141:modules/BMI088/bmi088.c ****         //{i--;} ÂèØ‰ª•ËÆæÁΩÆretryÊ¨°Êï∞,Â¶ÇÊûúretryÊ¨°Êï∞Áî®ÂÆå‰∫Ü,ÂàôËøîÂõûerror
 142:modules/BMI088/bmi088.c ****     }
 143:modules/BMI088/bmi088.c ****     return error;
 144:modules/BMI088/bmi088.c **** }
ARM GAS  C:\Users\29237\AppData\Local\Temp\ccJtdqFt.s 			page 4


 145:modules/BMI088/bmi088.c **** 
 146:modules/BMI088/bmi088.c **** /**
 147:modules/BMI088/bmi088.c ****  * @brief ÂàùÂßãÂåñBMI088ÈôÄËû∫‰ª™,ÊèêÈ´òÂèØËØªÊÄßÂàÜÊãÜÂäüËÉΩ
 148:modules/BMI088/bmi088.c ****  *
 149:modules/BMI088/bmi088.c ****  * @param bmi088 ÂæÖÂàùÂßãÂåñÁöÑBMI088ÂÆû‰æã
 150:modules/BMI088/bmi088.c ****  * @return uint8_t BMI088ERROR CODE
 151:modules/BMI088/bmi088.c ****  */
 152:modules/BMI088/bmi088.c **** static uint8_t BMI088GyroInit(BMI088Instance *bmi088)
 153:modules/BMI088/bmi088.c **** {
 154:modules/BMI088/bmi088.c ****     // ÂêéÁª≠Ê∑ªÂä†resetÂíåÈÄö‰ø°Ê£ÄÊü•?
 155:modules/BMI088/bmi088.c ****     // code to go here ...
 156:modules/BMI088/bmi088.c ****     BMI088GyroWriteSingleReg(bmi088, BMI088_GYRO_SOFTRESET, BMI088_GYRO_SOFTRESET_VALUE); // ËΩØÂ§ç
 157:modules/BMI088/bmi088.c ****     DWT_Delay(0.08);
 158:modules/BMI088/bmi088.c **** 
 159:modules/BMI088/bmi088.c ****     // Ê£ÄÊü•ID,Â¶ÇÊûú‰∏çÊòØ0x0F(bmi088 whoamiÂØÑÂ≠òÂô®ÂÄº),ÂàôËøîÂõûÈîôËØØ
 160:modules/BMI088/bmi088.c ****     uint8_t whoami_check = 0;
 161:modules/BMI088/bmi088.c ****     BMI088GyroRead(bmi088, BMI088_GYRO_CHIP_ID, &whoami_check, 1);
 162:modules/BMI088/bmi088.c ****     if (whoami_check != BMI088_GYRO_CHIP_ID_VALUE)
 163:modules/BMI088/bmi088.c ****         return BMI088_NO_SENSOR;
 164:modules/BMI088/bmi088.c ****     DWT_Delay(0.001);
 165:modules/BMI088/bmi088.c **** 
 166:modules/BMI088/bmi088.c ****     // ÂàùÂßãÂåñÂØÑÂ≠òÂô®,ÊèêÈ´òÂèØËØªÊÄß
 167:modules/BMI088/bmi088.c ****     uint8_t reg = 0, data = 0;
 168:modules/BMI088/bmi088.c ****     BMI088_ERORR_CODE_e error = 0;
 169:modules/BMI088/bmi088.c ****     // ‰ΩøÁî®sizeofËÄå‰∏çÊòØmagic number,ËøôÊ†∑Â¶ÇÊûú‰øÆÊîπ‰∫ÜÊï∞ÁªÑÂ§ßÂ∞è,‰∏çÁî®‰øÆÊîπËøôÈáåÁöÑ‰ª£
 170:modules/BMI088/bmi088.c ****     for (uint8_t i = 0; i < sizeof(BMI088_Gyro_Init_Table) / sizeof(BMI088_Gyro_Init_Table[0]); i++
 171:modules/BMI088/bmi088.c ****     {
 172:modules/BMI088/bmi088.c ****         reg = BMI088_Gyro_Init_Table[i][BMI088REG];
 173:modules/BMI088/bmi088.c ****         data = BMI088_Gyro_Init_Table[i][BMI088DATA];
 174:modules/BMI088/bmi088.c ****         BMI088GyroWriteSingleReg(bmi088, reg, data); // ÂÜôÂÖ•ÂØÑÂ≠òÂô®
 175:modules/BMI088/bmi088.c ****         DWT_Delay(0.001);
 176:modules/BMI088/bmi088.c ****         BMI088GyroRead(bmi088, reg, &data, 1); // ÂÜôÂÆå‰πãÂêéÁ´ãÂàªËØªÂõûÂØπÂ∫îÂØÑÂ≠òÂô®Ê£ÄÊü•ÊòØÂ
 177:modules/BMI088/bmi088.c ****         DWT_Delay(0.001);
 178:modules/BMI088/bmi088.c ****         if (data != BMI088_Gyro_Init_Table[i][BMI088DATA])
 179:modules/BMI088/bmi088.c ****             error |= BMI088_Gyro_Init_Table[i][BMI088ERROR];
 180:modules/BMI088/bmi088.c ****         //{i--;} ÂèØ‰ª•ËÆæÁΩÆretryÊ¨°Êï∞,Â∞ùËØïÈáçÊñ∞ÂÜôÂÖ•.Â¶ÇÊûúretryÊ¨°Êï∞Áî®ÂÆå‰∫Ü,ÂàôËøîÂõûerr
 181:modules/BMI088/bmi088.c ****     }
 182:modules/BMI088/bmi088.c **** 
 183:modules/BMI088/bmi088.c ****     return error;
 184:modules/BMI088/bmi088.c **** }
 185:modules/BMI088/bmi088.c **** // -------------------------‰ª•‰∏ä‰∏∫ÁßÅÊúâÂáΩÊï∞,Áî®‰∫éÂàùÂßãÂåñBMI088accÂíågyroÁöÑÁ°¨‰ª∂ÂíåÈÖçÁΩÆ
 186:modules/BMI088/bmi088.c **** 
 187:modules/BMI088/bmi088.c **** // -------------------------‰ª•‰∏ã‰∏∫ÁßÅÊúâÂáΩÊï∞,privateÁî®‰∫éITÊ®°Âºè‰∏ãÁöÑ‰∏≠Êñ≠Â§ÑÁêÜ----------
 188:modules/BMI088/bmi088.c **** 
 189:modules/BMI088/bmi088.c **** /**
 190:modules/BMI088/bmi088.c ****  * @brief ÂæÖÁºñÂÜô,ÂæàÂø´!
 191:modules/BMI088/bmi088.c ****  *
 192:modules/BMI088/bmi088.c ****  */
 193:modules/BMI088/bmi088.c **** static void BMI088AccSPIFinishCallback(SPIInstance *spi)
 194:modules/BMI088/bmi088.c **** {
  29              		.loc 1 194 1 view -0
  30              		.cfi_startproc
  31              		@ args = 0, pretend = 0, frame = 0
  32              		@ frame_needed = 0, uses_anonymous_args = 0
  33              		@ link register save eliminated.
 195:modules/BMI088/bmi088.c ****     // static BMI088Instance *bmi088;
 196:modules/BMI088/bmi088.c ****     // bmi088 = (BMI088Instance *)(spi->id);
ARM GAS  C:\Users\29237\AppData\Local\Temp\ccJtdqFt.s 			page 5


 197:modules/BMI088/bmi088.c ****    
 198:modules/BMI088/bmi088.c ****     // Ëã•Á¨¨‰∏ÄÊ¨°ËØªÂèñÂä†ÈÄüÂ∫¶,ÂàôÂú®ËøôÈáåÂêØÂä®Ê∏©Â∫¶ËØªÂèñ
 199:modules/BMI088/bmi088.c ****     // Â¶ÇÊûú‰ΩøÁî®ÂºÇÊ≠•ÂßøÊÄÅÊõ¥Êñ∞,Ê≠§Â§ÑÂî§ÈÜíÈáèÊµãÊõ¥Êñ∞ÁöÑ‰ªªÂä°
 200:modules/BMI088/bmi088.c **** }
  34              		.loc 1 200 1 view .LVU1
  35 0000 7047     		bx	lr
  36              		.cfi_endproc
  37              	.LFE282:
  39              		.section	.text.BMI088GyroSPIFinishCallback,"ax",%progbits
  40              		.align	1
  41              		.syntax unified
  42              		.thumb
  43              		.thumb_func
  45              	BMI088GyroSPIFinishCallback:
  46              	.LVL1:
  47              	.LFB283:
 201:modules/BMI088/bmi088.c **** 
 202:modules/BMI088/bmi088.c **** static void BMI088GyroSPIFinishCallback(SPIInstance *spi)
 203:modules/BMI088/bmi088.c **** {
  48              		.loc 1 203 1 view -0
  49              		.cfi_startproc
  50              		@ args = 0, pretend = 0, frame = 0
  51              		@ frame_needed = 0, uses_anonymous_args = 0
  52              		@ link register save eliminated.
 204:modules/BMI088/bmi088.c ****     // static BMI088Instance *bmi088;
 205:modules/BMI088/bmi088.c ****     // bmi088 = (BMI088Instance *)(spi->id);
 206:modules/BMI088/bmi088.c ****     // Ëã•‰∏çÊòØÂºÇÊ≠•,Âï•‰πü‰∏çÂÅö;Âê¶ÂàôÂêØÂä®ÂßøÊÄÅÁöÑÈ¢ÑÊµãÊ≠•(propagation)
 207:modules/BMI088/bmi088.c **** }
  53              		.loc 1 207 1 view .LVU3
  54 0000 7047     		bx	lr
  55              		.cfi_endproc
  56              	.LFE283:
  58              		.section	.text.BMI088GyroRead,"ax",%progbits
  59              		.align	1
  60              		.syntax unified
  61              		.thumb
  62              		.thumb_func
  64              	BMI088GyroRead:
  65              	.LVL2:
  66              	.LFB277:
  39:modules/BMI088/bmi088.c ****     if (len > 6)
  67              		.loc 1 39 1 view -0
  68              		.cfi_startproc
  69              		@ args = 0, pretend = 0, frame = 0
  70              		@ frame_needed = 0, uses_anonymous_args = 0
  40:modules/BMI088/bmi088.c ****         while (1)
  71              		.loc 1 40 5 view .LVU5
  40:modules/BMI088/bmi088.c ****         while (1)
  72              		.loc 1 40 8 is_stmt 0 view .LVU6
  73 0000 062B     		cmp	r3, #6
  74 0002 00D9     		bls	.L4
  75              	.L5:
  41:modules/BMI088/bmi088.c ****             ;
  76              		.loc 1 41 9 is_stmt 1 view .LVU7
  41:modules/BMI088/bmi088.c ****             ;
  77              		.loc 1 41 15 view .LVU8
  78 0004 FEE7     		b	.L5
ARM GAS  C:\Users\29237\AppData\Local\Temp\ccJtdqFt.s 			page 6


  79              	.L4:
  39:modules/BMI088/bmi088.c ****     if (len > 6)
  80              		.loc 1 39 1 is_stmt 0 view .LVU9
  81 0006 70B5     		push	{r4, r5, r6, lr}
  82              	.LCFI0:
  83              		.cfi_def_cfa_offset 16
  84              		.cfi_offset 4, -16
  85              		.cfi_offset 5, -12
  86              		.cfi_offset 6, -8
  87              		.cfi_offset 14, -4
  88 0008 1546     		mov	r5, r2
  89 000a 1C46     		mov	r4, r3
  44:modules/BMI088/bmi088.c ****     static uint8_t rx[7];          // Á¨¨‰∏Ä‰∏™ÊòØdummy data,Á¨¨‰∏â‰∏™ÂºÄÂßãÊòØÁúüÊ≠£ÁöÑÊï∞ÊçÆ
  90              		.loc 1 44 5 is_stmt 1 view .LVU10
  45:modules/BMI088/bmi088.c ****     
  91              		.loc 1 45 5 view .LVU11
  47:modules/BMI088/bmi088.c ****     SPITransRecv(bmi088->spi_gyro, rx, tx, len + 1);
  92              		.loc 1 47 5 view .LVU12
  47:modules/BMI088/bmi088.c ****     SPITransRecv(bmi088->spi_gyro, rx, tx, len + 1);
  93              		.loc 1 47 11 is_stmt 0 view .LVU13
  94 000c 084A     		ldr	r2, .L8
  95              	.LVL3:
  47:modules/BMI088/bmi088.c ****     SPITransRecv(bmi088->spi_gyro, rx, tx, len + 1);
  96              		.loc 1 47 11 view .LVU14
  97 000e 61F07F01 		orn	r1, r1, #127
  98              	.LVL4:
  47:modules/BMI088/bmi088.c ****     SPITransRecv(bmi088->spi_gyro, rx, tx, len + 1);
  99              		.loc 1 47 11 view .LVU15
 100 0012 1170     		strb	r1, [r2]
  48:modules/BMI088/bmi088.c ****     memcpy(dataptr, rx + 1, len); // @todo : memcpyÊúâÈ¢ùÂ§ñÂºÄÈîÄ,ÂêéÁª≠ÂèØ‰ª•ËÄÉËôë‰ºòÂåñ,Âú®SPI‰
 101              		.loc 1 48 5 is_stmt 1 view .LVU16
 102 0014 0133     		adds	r3, r3, #1
 103              	.LVL5:
  48:modules/BMI088/bmi088.c ****     memcpy(dataptr, rx + 1, len); // @todo : memcpyÊúâÈ¢ùÂ§ñÂºÄÈîÄ,ÂêéÁª≠ÂèØ‰ª•ËÄÉËôë‰ºòÂåñ,Âú®SPI‰
 104              		.loc 1 48 5 is_stmt 0 view .LVU17
 105 0016 074E     		ldr	r6, .L8+4
 106 0018 DBB2     		uxtb	r3, r3
 107 001a 3146     		mov	r1, r6
 108 001c 4068     		ldr	r0, [r0, #4]
 109              	.LVL6:
  48:modules/BMI088/bmi088.c ****     memcpy(dataptr, rx + 1, len); // @todo : memcpyÊúâÈ¢ùÂ§ñÂºÄÈîÄ,ÂêéÁª≠ÂèØ‰ª•ËÄÉËôë‰ºòÂåñ,Âú®SPI‰
 110              		.loc 1 48 5 view .LVU18
 111 001e FFF7FEFF 		bl	SPITransRecv
 112              	.LVL7:
  49:modules/BMI088/bmi088.c **** }
 113              		.loc 1 49 5 is_stmt 1 view .LVU19
 114 0022 2246     		mov	r2, r4
 115 0024 711C     		adds	r1, r6, #1
 116 0026 2846     		mov	r0, r5
 117 0028 FFF7FEFF 		bl	memcpy
 118              	.LVL8:
  50:modules/BMI088/bmi088.c **** 
 119              		.loc 1 50 1 is_stmt 0 view .LVU20
 120 002c 70BD     		pop	{r4, r5, r6, pc}
 121              	.LVL9:
 122              	.L9:
  50:modules/BMI088/bmi088.c **** 
ARM GAS  C:\Users\29237\AppData\Local\Temp\ccJtdqFt.s 			page 7


 123              		.loc 1 50 1 view .LVU21
 124 002e 00BF     		.align	2
 125              	.L8:
 126 0030 00000000 		.word	tx.7
 127 0034 00000000 		.word	rx.6
 128              		.cfi_endproc
 129              	.LFE277:
 131              		.section	.text.BMI088GyroINTCallback,"ax",%progbits
 132              		.align	1
 133              		.syntax unified
 134              		.thumb
 135              		.thumb_func
 137              	BMI088GyroINTCallback:
 138              	.LVL10:
 139              	.LFB285:
 208:modules/BMI088/bmi088.c **** 
 209:modules/BMI088/bmi088.c **** static void BMI088AccINTCallback(GPIOInstance *gpio)
 210:modules/BMI088/bmi088.c **** {
 211:modules/BMI088/bmi088.c ****     static BMI088Instance *bmi088;
 212:modules/BMI088/bmi088.c ****     static uint8_t buf[6] = {0}; // ÊúÄÂ§öËØªÂèñ6‰∏™byte(gyro/acc,tempÊòØ2)
 213:modules/BMI088/bmi088.c ****     bmi088 = (BMI088Instance *)(gpio->id);
 214:modules/BMI088/bmi088.c ****     bmi088->update_flag.imu_ready = 1;
 215:modules/BMI088/bmi088.c ****     bmi088->update_flag.acc = 1;
 216:modules/BMI088/bmi088.c ****     BMI088AccelRead(bmi088, BMI088_ACCEL_XOUT_L, buf, 6);
 217:modules/BMI088/bmi088.c ****     for (uint8_t i = 0; i < 3; i++)
 218:modules/BMI088/bmi088.c ****             bmi088->acc[i] = bmi088->acc_coef * (float)(int16_t)(((buf[2 * i + 1]) << 8) | buf[2 * 
 219:modules/BMI088/bmi088.c ****     // ÂêØÂä®Âä†ÈÄüÂ∫¶ËÆ°Êï∞ÊçÆËØªÂèñ(ÂíåÊ∏©Â∫¶ËØªÂèñ,Â¶ÇÊûúÊúâÂøÖË¶Å),Âπ∂ËΩ¨Êç¢‰∏∫ÂÆûÈôÖÂÄº
 220:modules/BMI088/bmi088.c ****     // ËØªÂèñÂÆåÊØï‰ºöË∞ÉÁî®BMI088AccSPIFinishCallback
 221:modules/BMI088/bmi088.c **** }
 222:modules/BMI088/bmi088.c **** 
 223:modules/BMI088/bmi088.c **** static void BMI088GyroINTCallback(GPIOInstance *gpio)
 224:modules/BMI088/bmi088.c **** {
 140              		.loc 1 224 1 is_stmt 1 view -0
 141              		.cfi_startproc
 142              		@ args = 0, pretend = 0, frame = 0
 143              		@ frame_needed = 0, uses_anonymous_args = 0
 144              		.loc 1 224 1 is_stmt 0 view .LVU23
 145 0000 08B5     		push	{r3, lr}
 146              	.LCFI1:
 147              		.cfi_def_cfa_offset 8
 148              		.cfi_offset 3, -8
 149              		.cfi_offset 14, -4
 225:modules/BMI088/bmi088.c ****     
 226:modules/BMI088/bmi088.c ****     static BMI088Instance *bmi088;
 150              		.loc 1 226 5 is_stmt 1 view .LVU24
 227:modules/BMI088/bmi088.c ****     static uint8_t buf[6] = {0}; // ÊúÄÂ§öËØªÂèñ6‰∏™byte(gyro/acc,tempÊòØ2)
 151              		.loc 1 227 5 view .LVU25
 228:modules/BMI088/bmi088.c ****     bmi088 = (BMI088Instance *)(gpio->id);
 152              		.loc 1 228 5 view .LVU26
 153              		.loc 1 228 37 is_stmt 0 view .LVU27
 154 0002 C068     		ldr	r0, [r0, #12]
 155              	.LVL11:
 156              		.loc 1 228 12 view .LVU28
 157 0004 194B     		ldr	r3, .L14
 158 0006 1860     		str	r0, [r3]
 229:modules/BMI088/bmi088.c ****     bmi088->update_flag.imu_ready = 1;
 159              		.loc 1 229 5 is_stmt 1 view .LVU29
ARM GAS  C:\Users\29237\AppData\Local\Temp\ccJtdqFt.s 			page 8


 160              		.loc 1 229 35 is_stmt 0 view .LVU30
 161 0008 90F8D030 		ldrb	r3, [r0, #208]	@ zero_extendqisi2
 162 000c 43F04003 		orr	r3, r3, #64
 163 0010 80F8D030 		strb	r3, [r0, #208]
 230:modules/BMI088/bmi088.c ****     bmi088->update_flag.gyro = 1;
 164              		.loc 1 230 5 is_stmt 1 view .LVU31
 165              		.loc 1 230 30 is_stmt 0 view .LVU32
 166 0014 DBB2     		uxtb	r3, r3
 167 0016 43F00103 		orr	r3, r3, #1
 168 001a 80F8D030 		strb	r3, [r0, #208]
 231:modules/BMI088/bmi088.c ****     uint8_t whoami_check = 0;
 169              		.loc 1 231 5 is_stmt 1 view .LVU33
 170              	.LVL12:
 232:modules/BMI088/bmi088.c ****     //do{BMI088GyroRead(bmi088, BMI088_GYRO_CHIP_ID, &whoami_check, 1);}while(whoami_check != BMI08
 233:modules/BMI088/bmi088.c **** 
 234:modules/BMI088/bmi088.c ****     BMI088GyroRead(bmi088, BMI088_GYRO_X_L, buf, 6);
 171              		.loc 1 234 5 view .LVU34
 172 001e 0623     		movs	r3, #6
 173 0020 134A     		ldr	r2, .L14+4
 174 0022 0221     		movs	r1, #2
 175 0024 FFF7FEFF 		bl	BMI088GyroRead
 176              	.LVL13:
 235:modules/BMI088/bmi088.c ****     for (uint8_t i = 0; i < 3; i++)
 177              		.loc 1 235 5 view .LVU35
 178              	.LBB2:
 179              		.loc 1 235 10 view .LVU36
 180              		.loc 1 235 18 is_stmt 0 view .LVU37
 181 0028 0023     		movs	r3, #0
 182              		.loc 1 235 5 view .LVU38
 183 002a 1BE0     		b	.L11
 184              	.LVL14:
 185              	.L12:
 236:modules/BMI088/bmi088.c ****             bmi088->gyro[i] = bmi088->BMI088_GYRO_SEN * (float)(int16_t)(((buf[2 * i + 1]) << 8) | 
 186              		.loc 1 236 13 is_stmt 1 view .LVU39
 187              		.loc 1 236 37 is_stmt 0 view .LVU40
 188 002c 0F4A     		ldr	r2, .L14
 189 002e 1168     		ldr	r1, [r2]
 190 0030 91ED327A 		vldr.32	s14, [r1, #200]
 191              		.loc 1 236 82 view .LVU41
 192 0034 5A00     		lsls	r2, r3, #1
 193              		.loc 1 236 86 view .LVU42
 194 0036 0132     		adds	r2, r2, #1
 195              		.loc 1 236 79 view .LVU43
 196 0038 0D48     		ldr	r0, .L14+4
 197 003a 10F802C0 		ldrb	ip, [r0, r2]	@ zero_extendqisi2
 198              		.loc 1 236 103 view .LVU44
 199 003e 10F81320 		ldrb	r2, [r0, r3, lsl #1]	@ zero_extendqisi2
 200              		.loc 1 236 64 view .LVU45
 201 0042 42EA0C22 		orr	r2, r2, ip, lsl #8
 202 0046 12B2     		sxth	r2, r2
 203              		.loc 1 236 57 view .LVU46
 204 0048 07EE902A 		vmov	s15, r2	@ int
 205 004c F8EEE77A 		vcvt.f32.s32	s15, s15
 206              		.loc 1 236 55 view .LVU47
 207 0050 67EE277A 		vmul.f32	s15, s14, s15
 208              		.loc 1 236 29 view .LVU48
 209 0054 03F12402 		add	r2, r3, #36
ARM GAS  C:\Users\29237\AppData\Local\Temp\ccJtdqFt.s 			page 9


 210 0058 01EB8201 		add	r1, r1, r2, lsl #2
 211 005c C1ED017A 		vstr.32	s15, [r1, #4]
 235:modules/BMI088/bmi088.c ****     for (uint8_t i = 0; i < 3; i++)
 212              		.loc 1 235 33 is_stmt 1 discriminator 3 view .LVU49
 213 0060 0133     		adds	r3, r3, #1
 214              	.LVL15:
 235:modules/BMI088/bmi088.c ****     for (uint8_t i = 0; i < 3; i++)
 215              		.loc 1 235 33 is_stmt 0 discriminator 3 view .LVU50
 216 0062 DBB2     		uxtb	r3, r3
 217              	.LVL16:
 218              	.L11:
 235:modules/BMI088/bmi088.c ****     for (uint8_t i = 0; i < 3; i++)
 219              		.loc 1 235 27 is_stmt 1 discriminator 1 view .LVU51
 220 0064 022B     		cmp	r3, #2
 221 0066 E1D9     		bls	.L12
 222              	.LBE2:
 237:modules/BMI088/bmi088.c ****     // ÂêØÂä®ÈôÄËû∫‰ª™Êï∞ÊçÆËØªÂèñ,Âπ∂ËΩ¨Êç¢‰∏∫ÂÆûÈôÖÂÄº
 238:modules/BMI088/bmi088.c ****     // ËØªÂèñÂÆåÊØï‰ºöË∞ÉÁî®BMI088GyroSPIFinishCallback
 239:modules/BMI088/bmi088.c **** }
 223              		.loc 1 239 1 is_stmt 0 view .LVU52
 224 0068 08BD     		pop	{r3, pc}
 225              	.LVL17:
 226              	.L15:
 227              		.loc 1 239 1 view .LVU53
 228 006a 00BF     		.align	2
 229              	.L14:
 230 006c 00000000 		.word	bmi088.3
 231 0070 00000000 		.word	buf.2
 232              		.cfi_endproc
 233              	.LFE285:
 235              		.section	.text.BMI088AccelRead,"ax",%progbits
 236              		.align	1
 237              		.syntax unified
 238              		.thumb
 239              		.thumb_func
 241              	BMI088AccelRead:
 242              	.LVL18:
 243              	.LFB276:
  18:modules/BMI088/bmi088.c ****     if (len > 6)
 244              		.loc 1 18 1 is_stmt 1 view -0
 245              		.cfi_startproc
 246              		@ args = 0, pretend = 0, frame = 0
 247              		@ frame_needed = 0, uses_anonymous_args = 0
  19:modules/BMI088/bmi088.c ****         while (1)
 248              		.loc 1 19 5 view .LVU55
  19:modules/BMI088/bmi088.c ****         while (1)
 249              		.loc 1 19 8 is_stmt 0 view .LVU56
 250 0000 062B     		cmp	r3, #6
 251 0002 00D9     		bls	.L17
 252              	.L18:
  20:modules/BMI088/bmi088.c ****             ;
 253              		.loc 1 20 9 is_stmt 1 view .LVU57
  20:modules/BMI088/bmi088.c ****             ;
 254              		.loc 1 20 15 view .LVU58
 255 0004 FEE7     		b	.L18
 256              	.L17:
  18:modules/BMI088/bmi088.c ****     if (len > 6)
ARM GAS  C:\Users\29237\AppData\Local\Temp\ccJtdqFt.s 			page 10


 257              		.loc 1 18 1 is_stmt 0 view .LVU59
 258 0006 70B5     		push	{r4, r5, r6, lr}
 259              	.LCFI2:
 260              		.cfi_def_cfa_offset 16
 261              		.cfi_offset 4, -16
 262              		.cfi_offset 5, -12
 263              		.cfi_offset 6, -8
 264              		.cfi_offset 14, -4
 265 0008 1546     		mov	r5, r2
 266 000a 1C46     		mov	r4, r3
  23:modules/BMI088/bmi088.c ****     static uint8_t rx[8]; // Ââç‰∏§‰∏™Â≠óËäÇÊòØdummy data,Á¨¨‰∏â‰∏™ÂºÄÂßãÊòØÁúüÊ≠£ÁöÑÊï∞ÊçÆ
 267              		.loc 1 23 5 is_stmt 1 view .LVU60
  24:modules/BMI088/bmi088.c ****     tx[0] = 0x80 | reg;   // ÈùôÊÄÅÂèòÈáèÊØèÊ¨°ËøõÊù•ËøòÊòØ‰∏äÊ¨°ÁöÑÂÄº,ÊâÄ‰ª•Ë¶ÅÊØèÊ¨°ÈÉΩË¶ÅÁªôtx[
 268              		.loc 1 24 5 view .LVU61
  25:modules/BMI088/bmi088.c ****     SPITransRecv(bmi088->spi_acc, rx, tx, len + 2);
 269              		.loc 1 25 5 view .LVU62
  25:modules/BMI088/bmi088.c ****     SPITransRecv(bmi088->spi_acc, rx, tx, len + 2);
 270              		.loc 1 25 11 is_stmt 0 view .LVU63
 271 000c 084A     		ldr	r2, .L21
 272              	.LVL19:
  25:modules/BMI088/bmi088.c ****     SPITransRecv(bmi088->spi_acc, rx, tx, len + 2);
 273              		.loc 1 25 11 view .LVU64
 274 000e 61F07F01 		orn	r1, r1, #127
 275              	.LVL20:
  25:modules/BMI088/bmi088.c ****     SPITransRecv(bmi088->spi_acc, rx, tx, len + 2);
 276              		.loc 1 25 11 view .LVU65
 277 0012 1170     		strb	r1, [r2]
  26:modules/BMI088/bmi088.c ****     memcpy(dataptr, rx + 2, len); // @todo : memcpyÊúâÈ¢ùÂ§ñÂºÄÈîÄ,ÂêéÁª≠ÂèØ‰ª•ËÄÉËôë‰ºòÂåñ,Âú®SPI‰
 278              		.loc 1 26 5 is_stmt 1 view .LVU66
 279 0014 0233     		adds	r3, r3, #2
 280              	.LVL21:
  26:modules/BMI088/bmi088.c ****     memcpy(dataptr, rx + 2, len); // @todo : memcpyÊúâÈ¢ùÂ§ñÂºÄÈîÄ,ÂêéÁª≠ÂèØ‰ª•ËÄÉËôë‰ºòÂåñ,Âú®SPI‰
 281              		.loc 1 26 5 is_stmt 0 view .LVU67
 282 0016 074E     		ldr	r6, .L21+4
 283 0018 DBB2     		uxtb	r3, r3
 284 001a 3146     		mov	r1, r6
 285 001c 8068     		ldr	r0, [r0, #8]
 286              	.LVL22:
  26:modules/BMI088/bmi088.c ****     memcpy(dataptr, rx + 2, len); // @todo : memcpyÊúâÈ¢ùÂ§ñÂºÄÈîÄ,ÂêéÁª≠ÂèØ‰ª•ËÄÉËôë‰ºòÂåñ,Âú®SPI‰
 287              		.loc 1 26 5 view .LVU68
 288 001e FFF7FEFF 		bl	SPITransRecv
 289              	.LVL23:
  27:modules/BMI088/bmi088.c **** }
 290              		.loc 1 27 5 is_stmt 1 view .LVU69
 291 0022 2246     		mov	r2, r4
 292 0024 B11C     		adds	r1, r6, #2
 293 0026 2846     		mov	r0, r5
 294 0028 FFF7FEFF 		bl	memcpy
 295              	.LVL24:
  28:modules/BMI088/bmi088.c **** 
 296              		.loc 1 28 1 is_stmt 0 view .LVU70
 297 002c 70BD     		pop	{r4, r5, r6, pc}
 298              	.LVL25:
 299              	.L22:
  28:modules/BMI088/bmi088.c **** 
 300              		.loc 1 28 1 view .LVU71
 301 002e 00BF     		.align	2
ARM GAS  C:\Users\29237\AppData\Local\Temp\ccJtdqFt.s 			page 11


 302              	.L21:
 303 0030 00000000 		.word	tx.5
 304 0034 00000000 		.word	rx.4
 305              		.cfi_endproc
 306              	.LFE276:
 308              		.section	.text.BMI088AccINTCallback,"ax",%progbits
 309              		.align	1
 310              		.syntax unified
 311              		.thumb
 312              		.thumb_func
 314              	BMI088AccINTCallback:
 315              	.LVL26:
 316              	.LFB284:
 210:modules/BMI088/bmi088.c ****     static BMI088Instance *bmi088;
 317              		.loc 1 210 1 is_stmt 1 view -0
 318              		.cfi_startproc
 319              		@ args = 0, pretend = 0, frame = 0
 320              		@ frame_needed = 0, uses_anonymous_args = 0
 210:modules/BMI088/bmi088.c ****     static BMI088Instance *bmi088;
 321              		.loc 1 210 1 is_stmt 0 view .LVU73
 322 0000 08B5     		push	{r3, lr}
 323              	.LCFI3:
 324              		.cfi_def_cfa_offset 8
 325              		.cfi_offset 3, -8
 326              		.cfi_offset 14, -4
 211:modules/BMI088/bmi088.c ****     static uint8_t buf[6] = {0}; // ÊúÄÂ§öËØªÂèñ6‰∏™byte(gyro/acc,tempÊòØ2)
 327              		.loc 1 211 5 is_stmt 1 view .LVU74
 212:modules/BMI088/bmi088.c ****     bmi088 = (BMI088Instance *)(gpio->id);
 328              		.loc 1 212 5 view .LVU75
 213:modules/BMI088/bmi088.c ****     bmi088->update_flag.imu_ready = 1;
 329              		.loc 1 213 5 view .LVU76
 213:modules/BMI088/bmi088.c ****     bmi088->update_flag.imu_ready = 1;
 330              		.loc 1 213 37 is_stmt 0 view .LVU77
 331 0002 C068     		ldr	r0, [r0, #12]
 332              	.LVL27:
 213:modules/BMI088/bmi088.c ****     bmi088->update_flag.imu_ready = 1;
 333              		.loc 1 213 12 view .LVU78
 334 0004 194B     		ldr	r3, .L27
 335 0006 1860     		str	r0, [r3]
 214:modules/BMI088/bmi088.c ****     bmi088->update_flag.acc = 1;
 336              		.loc 1 214 5 is_stmt 1 view .LVU79
 214:modules/BMI088/bmi088.c ****     bmi088->update_flag.acc = 1;
 337              		.loc 1 214 35 is_stmt 0 view .LVU80
 338 0008 90F8D030 		ldrb	r3, [r0, #208]	@ zero_extendqisi2
 339 000c 43F04003 		orr	r3, r3, #64
 340 0010 80F8D030 		strb	r3, [r0, #208]
 215:modules/BMI088/bmi088.c ****     BMI088AccelRead(bmi088, BMI088_ACCEL_XOUT_L, buf, 6);
 341              		.loc 1 215 5 is_stmt 1 view .LVU81
 215:modules/BMI088/bmi088.c ****     BMI088AccelRead(bmi088, BMI088_ACCEL_XOUT_L, buf, 6);
 342              		.loc 1 215 29 is_stmt 0 view .LVU82
 343 0014 DBB2     		uxtb	r3, r3
 344 0016 43F00203 		orr	r3, r3, #2
 345 001a 80F8D030 		strb	r3, [r0, #208]
 216:modules/BMI088/bmi088.c ****     for (uint8_t i = 0; i < 3; i++)
 346              		.loc 1 216 5 is_stmt 1 view .LVU83
 347 001e 0623     		movs	r3, #6
 348 0020 134A     		ldr	r2, .L27+4
ARM GAS  C:\Users\29237\AppData\Local\Temp\ccJtdqFt.s 			page 12


 349 0022 1221     		movs	r1, #18
 350 0024 FFF7FEFF 		bl	BMI088AccelRead
 351              	.LVL28:
 217:modules/BMI088/bmi088.c ****             bmi088->acc[i] = bmi088->acc_coef * (float)(int16_t)(((buf[2 * i + 1]) << 8) | buf[2 * 
 352              		.loc 1 217 5 view .LVU84
 353              	.LBB3:
 217:modules/BMI088/bmi088.c ****             bmi088->acc[i] = bmi088->acc_coef * (float)(int16_t)(((buf[2 * i + 1]) << 8) | buf[2 * 
 354              		.loc 1 217 10 view .LVU85
 217:modules/BMI088/bmi088.c ****             bmi088->acc[i] = bmi088->acc_coef * (float)(int16_t)(((buf[2 * i + 1]) << 8) | buf[2 * 
 355              		.loc 1 217 18 is_stmt 0 view .LVU86
 356 0028 0023     		movs	r3, #0
 217:modules/BMI088/bmi088.c ****             bmi088->acc[i] = bmi088->acc_coef * (float)(int16_t)(((buf[2 * i + 1]) << 8) | buf[2 * 
 357              		.loc 1 217 5 view .LVU87
 358 002a 1BE0     		b	.L24
 359              	.LVL29:
 360              	.L25:
 218:modules/BMI088/bmi088.c ****     // ÂêØÂä®Âä†ÈÄüÂ∫¶ËÆ°Êï∞ÊçÆËØªÂèñ(ÂíåÊ∏©Â∫¶ËØªÂèñ,Â¶ÇÊûúÊúâÂøÖË¶Å),Âπ∂ËΩ¨Êç¢‰∏∫ÂÆûÈôÖÂÄº
 361              		.loc 1 218 13 is_stmt 1 view .LVU88
 218:modules/BMI088/bmi088.c ****     // ÂêØÂä®Âä†ÈÄüÂ∫¶ËÆ°Êï∞ÊçÆËØªÂèñ(ÂíåÊ∏©Â∫¶ËØªÂèñ,Â¶ÇÊûúÊúâÂøÖË¶Å),Âπ∂ËΩ¨Êç¢‰∏∫ÂÆûÈôÖÂÄº
 362              		.loc 1 218 36 is_stmt 0 view .LVU89
 363 002c 0F4A     		ldr	r2, .L27
 364 002e 1168     		ldr	r1, [r2]
 365 0030 91ED307A 		vldr.32	s14, [r1, #192]
 218:modules/BMI088/bmi088.c ****     // ÂêØÂä®Âä†ÈÄüÂ∫¶ËÆ°Êï∞ÊçÆËØªÂèñ(ÂíåÊ∏©Â∫¶ËØªÂèñ,Â¶ÇÊûúÊúâÂøÖË¶Å),Âπ∂ËΩ¨Êç¢‰∏∫ÂÆûÈôÖÂÄº
 366              		.loc 1 218 74 view .LVU90
 367 0034 5A00     		lsls	r2, r3, #1
 218:modules/BMI088/bmi088.c ****     // ÂêØÂä®Âä†ÈÄüÂ∫¶ËÆ°Êï∞ÊçÆËØªÂèñ(ÂíåÊ∏©Â∫¶ËØªÂèñ,Â¶ÇÊûúÊúâÂøÖË¶Å),Âπ∂ËΩ¨Êç¢‰∏∫ÂÆûÈôÖÂÄº
 368              		.loc 1 218 78 view .LVU91
 369 0036 0132     		adds	r2, r2, #1
 218:modules/BMI088/bmi088.c ****     // ÂêØÂä®Âä†ÈÄüÂ∫¶ËÆ°Êï∞ÊçÆËØªÂèñ(ÂíåÊ∏©Â∫¶ËØªÂèñ,Â¶ÇÊûúÊúâÂøÖË¶Å),Âπ∂ËΩ¨Êç¢‰∏∫ÂÆûÈôÖÂÄº
 370              		.loc 1 218 71 view .LVU92
 371 0038 0D48     		ldr	r0, .L27+4
 372 003a 10F802C0 		ldrb	ip, [r0, r2]	@ zero_extendqisi2
 218:modules/BMI088/bmi088.c ****     // ÂêØÂä®Âä†ÈÄüÂ∫¶ËÆ°Êï∞ÊçÆËØªÂèñ(ÂíåÊ∏©Â∫¶ËØªÂèñ,Â¶ÇÊûúÊúâÂøÖË¶Å),Âπ∂ËΩ¨Êç¢‰∏∫ÂÆûÈôÖÂÄº
 373              		.loc 1 218 95 view .LVU93
 374 003e 10F81320 		ldrb	r2, [r0, r3, lsl #1]	@ zero_extendqisi2
 218:modules/BMI088/bmi088.c ****     // ÂêØÂä®Âä†ÈÄüÂ∫¶ËÆ°Êï∞ÊçÆËØªÂèñ(ÂíåÊ∏©Â∫¶ËØªÂèñ,Â¶ÇÊûúÊúâÂøÖË¶Å),Âπ∂ËΩ¨Êç¢‰∏∫ÂÆûÈôÖÂÄº
 375              		.loc 1 218 56 view .LVU94
 376 0042 42EA0C22 		orr	r2, r2, ip, lsl #8
 377 0046 12B2     		sxth	r2, r2
 218:modules/BMI088/bmi088.c ****     // ÂêØÂä®Âä†ÈÄüÂ∫¶ËÆ°Êï∞ÊçÆËØªÂèñ(ÂíåÊ∏©Â∫¶ËØªÂèñ,Â¶ÇÊûúÊúâÂøÖË¶Å),Âπ∂ËΩ¨Êç¢‰∏∫ÂÆûÈôÖÂÄº
 378              		.loc 1 218 49 view .LVU95
 379 0048 07EE902A 		vmov	s15, r2	@ int
 380 004c F8EEE77A 		vcvt.f32.s32	s15, s15
 218:modules/BMI088/bmi088.c ****     // ÂêØÂä®Âä†ÈÄüÂ∫¶ËÆ°Êï∞ÊçÆËØªÂèñ(ÂíåÊ∏©Â∫¶ËØªÂèñ,Â¶ÇÊûúÊúâÂøÖË¶Å),Âπ∂ËΩ¨Êç¢‰∏∫ÂÆûÈôÖÂÄº
 381              		.loc 1 218 47 view .LVU96
 382 0050 67EE277A 		vmul.f32	s15, s14, s15
 218:modules/BMI088/bmi088.c ****     // ÂêØÂä®Âä†ÈÄüÂ∫¶ËÆ°Êï∞ÊçÆËØªÂèñ(ÂíåÊ∏©Â∫¶ËØªÂèñ,Â¶ÇÊûúÊúâÂøÖË¶Å),Âπ∂ËΩ¨Êç¢‰∏∫ÂÆûÈôÖÂÄº
 383              		.loc 1 218 28 view .LVU97
 384 0054 03F12802 		add	r2, r3, #40
 385 0058 01EB8201 		add	r1, r1, r2, lsl #2
 386 005c C1ED007A 		vstr.32	s15, [r1]
 217:modules/BMI088/bmi088.c ****             bmi088->acc[i] = bmi088->acc_coef * (float)(int16_t)(((buf[2 * i + 1]) << 8) | buf[2 * 
 387              		.loc 1 217 33 is_stmt 1 discriminator 3 view .LVU98
 388 0060 0133     		adds	r3, r3, #1
 389              	.LVL30:
 217:modules/BMI088/bmi088.c ****             bmi088->acc[i] = bmi088->acc_coef * (float)(int16_t)(((buf[2 * i + 1]) << 8) | buf[2 * 
ARM GAS  C:\Users\29237\AppData\Local\Temp\ccJtdqFt.s 			page 13


 390              		.loc 1 217 33 is_stmt 0 discriminator 3 view .LVU99
 391 0062 DBB2     		uxtb	r3, r3
 392              	.LVL31:
 393              	.L24:
 217:modules/BMI088/bmi088.c ****             bmi088->acc[i] = bmi088->acc_coef * (float)(int16_t)(((buf[2 * i + 1]) << 8) | buf[2 * 
 394              		.loc 1 217 27 is_stmt 1 discriminator 1 view .LVU100
 395 0064 022B     		cmp	r3, #2
 396 0066 E1D9     		bls	.L25
 397              	.LBE3:
 221:modules/BMI088/bmi088.c **** 
 398              		.loc 1 221 1 is_stmt 0 view .LVU101
 399 0068 08BD     		pop	{r3, pc}
 400              	.LVL32:
 401              	.L28:
 221:modules/BMI088/bmi088.c **** 
 402              		.loc 1 221 1 view .LVU102
 403 006a 00BF     		.align	2
 404              	.L27:
 405 006c 00000000 		.word	bmi088.1
 406 0070 00000000 		.word	buf.0
 407              		.cfi_endproc
 408              	.LFE284:
 410              		.section	.text.BMI088AccelWriteSingleReg,"ax",%progbits
 411              		.align	1
 412              		.syntax unified
 413              		.thumb
 414              		.thumb_func
 416              	BMI088AccelWriteSingleReg:
 417              	.LVL33:
 418              	.LFB278:
  61:modules/BMI088/bmi088.c ****     uint8_t tx[2] = {reg, data};
 419              		.loc 1 61 1 is_stmt 1 view -0
 420              		.cfi_startproc
 421              		@ args = 0, pretend = 0, frame = 8
 422              		@ frame_needed = 0, uses_anonymous_args = 0
  61:modules/BMI088/bmi088.c ****     uint8_t tx[2] = {reg, data};
 423              		.loc 1 61 1 is_stmt 0 view .LVU104
 424 0000 00B5     		push	{lr}
 425              	.LCFI4:
 426              		.cfi_def_cfa_offset 4
 427              		.cfi_offset 14, -4
 428 0002 83B0     		sub	sp, sp, #12
 429              	.LCFI5:
 430              		.cfi_def_cfa_offset 16
  62:modules/BMI088/bmi088.c ****     SPITransmit(bmi088->spi_acc, tx, 2);
 431              		.loc 1 62 5 is_stmt 1 view .LVU105
  62:modules/BMI088/bmi088.c ****     SPITransmit(bmi088->spi_acc, tx, 2);
 432              		.loc 1 62 13 is_stmt 0 view .LVU106
 433 0004 8DF80410 		strb	r1, [sp, #4]
 434 0008 8DF80520 		strb	r2, [sp, #5]
  63:modules/BMI088/bmi088.c **** }
 435              		.loc 1 63 5 is_stmt 1 view .LVU107
 436 000c 0222     		movs	r2, #2
 437              	.LVL34:
  63:modules/BMI088/bmi088.c **** }
 438              		.loc 1 63 5 is_stmt 0 view .LVU108
 439 000e 01A9     		add	r1, sp, #4
ARM GAS  C:\Users\29237\AppData\Local\Temp\ccJtdqFt.s 			page 14


 440              	.LVL35:
  63:modules/BMI088/bmi088.c **** }
 441              		.loc 1 63 5 view .LVU109
 442 0010 8068     		ldr	r0, [r0, #8]
 443              	.LVL36:
  63:modules/BMI088/bmi088.c **** }
 444              		.loc 1 63 5 view .LVU110
 445 0012 FFF7FEFF 		bl	SPITransmit
 446              	.LVL37:
  64:modules/BMI088/bmi088.c **** 
 447              		.loc 1 64 1 view .LVU111
 448 0016 03B0     		add	sp, sp, #12
 449              	.LCFI6:
 450              		.cfi_def_cfa_offset 4
 451              		@ sp needed
 452 0018 5DF804FB 		ldr	pc, [sp], #4
 453              		.cfi_endproc
 454              	.LFE278:
 456              		.section	.text.BMI088AccelInit,"ax",%progbits
 457              		.align	1
 458              		.syntax unified
 459              		.thumb
 460              		.thumb_func
 462              	BMI088AccelInit:
 463              	.LVL38:
 464              	.LFB280:
 112:modules/BMI088/bmi088.c ****     uint8_t whoami_check = 0;
 465              		.loc 1 112 1 is_stmt 1 view -0
 466              		.cfi_startproc
 467              		@ args = 0, pretend = 0, frame = 8
 468              		@ frame_needed = 0, uses_anonymous_args = 0
 112:modules/BMI088/bmi088.c ****     uint8_t whoami_check = 0;
 469              		.loc 1 112 1 is_stmt 0 view .LVU113
 470 0000 2DE9F041 		push	{r4, r5, r6, r7, r8, lr}
 471              	.LCFI7:
 472              		.cfi_def_cfa_offset 24
 473              		.cfi_offset 4, -24
 474              		.cfi_offset 5, -20
 475              		.cfi_offset 6, -16
 476              		.cfi_offset 7, -12
 477              		.cfi_offset 8, -8
 478              		.cfi_offset 14, -4
 479 0004 2DED028B 		vpush.64	{d8}
 480              	.LCFI8:
 481              		.cfi_def_cfa_offset 32
 482              		.cfi_offset 80, -32
 483              		.cfi_offset 81, -28
 484 0008 82B0     		sub	sp, sp, #8
 485              	.LCFI9:
 486              		.cfi_def_cfa_offset 40
 487 000a 0646     		mov	r6, r0
 113:modules/BMI088/bmi088.c **** 
 488              		.loc 1 113 5 is_stmt 1 view .LVU114
 113:modules/BMI088/bmi088.c **** 
 489              		.loc 1 113 13 is_stmt 0 view .LVU115
 490 000c 0024     		movs	r4, #0
 491 000e 8DF80740 		strb	r4, [sp, #7]
ARM GAS  C:\Users\29237\AppData\Local\Temp\ccJtdqFt.s 			page 15


 116:modules/BMI088/bmi088.c ****     DWT_Delay(0.001);
 492              		.loc 1 116 5 is_stmt 1 view .LVU116
 493 0012 0DF10705 		add	r5, sp, #7
 494 0016 0123     		movs	r3, #1
 495 0018 2A46     		mov	r2, r5
 496 001a 2146     		mov	r1, r4
 497 001c FFF7FEFF 		bl	BMI088AccelRead
 498              	.LVL39:
 117:modules/BMI088/bmi088.c **** 
 499              		.loc 1 117 5 view .LVU117
 500 0020 9FED2A0A 		vldr.32	s0, .L39
 501 0024 FFF7FEFF 		bl	DWT_Delay
 502              	.LVL40:
 119:modules/BMI088/bmi088.c ****     DWT_Delay(BMI088_COM_WAIT_SENSOR_TIME / 1000);
 503              		.loc 1 119 5 view .LVU118
 504 0028 B622     		movs	r2, #182
 505 002a 7E21     		movs	r1, #126
 506 002c 3046     		mov	r0, r6
 507 002e FFF7FEFF 		bl	BMI088AccelWriteSingleReg
 508              	.LVL41:
 120:modules/BMI088/bmi088.c **** 
 509              		.loc 1 120 5 view .LVU119
 510 0032 9FED270A 		vldr.32	s0, .L39+4
 511 0036 FFF7FEFF 		bl	DWT_Delay
 512              	.LVL42:
 123:modules/BMI088/bmi088.c ****     if (whoami_check != BMI088_ACC_CHIP_ID_VALUE)
 513              		.loc 1 123 5 view .LVU120
 514 003a 0123     		movs	r3, #1
 515 003c 2A46     		mov	r2, r5
 516 003e 2146     		mov	r1, r4
 517 0040 3046     		mov	r0, r6
 518 0042 FFF7FEFF 		bl	BMI088AccelRead
 519              	.LVL43:
 124:modules/BMI088/bmi088.c ****         return BMI088_NO_SENSOR;
 520              		.loc 1 124 5 view .LVU121
 124:modules/BMI088/bmi088.c ****         return BMI088_NO_SENSOR;
 521              		.loc 1 124 22 is_stmt 0 view .LVU122
 522 0046 9DF80730 		ldrb	r3, [sp, #7]	@ zero_extendqisi2
 124:modules/BMI088/bmi088.c ****         return BMI088_NO_SENSOR;
 523              		.loc 1 124 8 view .LVU123
 524 004a 1E2B     		cmp	r3, #30
 525 004c 07D0     		beq	.L38
 125:modules/BMI088/bmi088.c ****     DWT_Delay(0.001);
 526              		.loc 1 125 16 view .LVU124
 527 004e 4FF0FF08 		mov	r8, #255
 528              	.L32:
 144:modules/BMI088/bmi088.c **** 
 529              		.loc 1 144 1 view .LVU125
 530 0052 4046     		mov	r0, r8
 531 0054 02B0     		add	sp, sp, #8
 532              	.LCFI10:
 533              		.cfi_remember_state
 534              		.cfi_def_cfa_offset 32
 535              		@ sp needed
 536 0056 BDEC028B 		vldm	sp!, {d8}
 537              	.LCFI11:
 538              		.cfi_restore 80
ARM GAS  C:\Users\29237\AppData\Local\Temp\ccJtdqFt.s 			page 16


 539              		.cfi_restore 81
 540              		.cfi_def_cfa_offset 24
 541 005a BDE8F081 		pop	{r4, r5, r6, r7, r8, pc}
 542              	.LVL44:
 543              	.L38:
 544              	.LCFI12:
 545              		.cfi_restore_state
 126:modules/BMI088/bmi088.c ****     // ÂàùÂßãÂåñÂØÑÂ≠òÂô®,ÊèêÈ´òÂèØËØªÊÄß
 546              		.loc 1 126 5 is_stmt 1 view .LVU126
 547 005e 9FED1B0A 		vldr.32	s0, .L39
 548 0062 FFF7FEFF 		bl	DWT_Delay
 549              	.LVL45:
 128:modules/BMI088/bmi088.c ****     BMI088_ERORR_CODE_e error = 0;
 550              		.loc 1 128 5 view .LVU127
 128:modules/BMI088/bmi088.c ****     BMI088_ERORR_CODE_e error = 0;
 551              		.loc 1 128 22 is_stmt 0 view .LVU128
 552 0066 A046     		mov	r8, r4
 553 0068 8DF80640 		strb	r4, [sp, #6]
 129:modules/BMI088/bmi088.c ****     // ‰ΩøÁî®sizeofËÄå‰∏çÊòØmagic number,ËøôÊ†∑Â¶ÇÊûú‰øÆÊîπ‰∫ÜÊï∞ÁªÑÂ§ßÂ∞è,‰∏çÁî®‰øÆÊîπËøôÈáåÁöÑ‰ª£
 554              		.loc 1 129 5 is_stmt 1 view .LVU129
 555              	.LVL46:
 131:modules/BMI088/bmi088.c ****     {
 556              		.loc 1 131 5 view .LVU130
 557              	.LBB4:
 131:modules/BMI088/bmi088.c ****     {
 558              		.loc 1 131 10 view .LVU131
 131:modules/BMI088/bmi088.c ****     {
 559              		.loc 1 131 5 is_stmt 0 view .LVU132
 560 006c 01E0     		b	.L33
 561              	.LVL47:
 562              	.L34:
 131:modules/BMI088/bmi088.c ****     {
 563              		.loc 1 131 100 is_stmt 1 discriminator 2 view .LVU133
 564 006e 0134     		adds	r4, r4, #1
 565              	.LVL48:
 131:modules/BMI088/bmi088.c ****     {
 566              		.loc 1 131 100 is_stmt 0 discriminator 2 view .LVU134
 567 0070 E4B2     		uxtb	r4, r4
 568              	.LVL49:
 569              	.L33:
 131:modules/BMI088/bmi088.c ****     {
 570              		.loc 1 131 27 is_stmt 1 discriminator 1 view .LVU135
 571 0072 052C     		cmp	r4, #5
 572 0074 EDD8     		bhi	.L32
 133:modules/BMI088/bmi088.c ****         data = BMI088_Accel_Init_Table[i][BMI088DATA];
 573              		.loc 1 133 9 view .LVU136
 133:modules/BMI088/bmi088.c ****         data = BMI088_Accel_Init_Table[i][BMI088DATA];
 574              		.loc 1 133 13 is_stmt 0 view .LVU137
 575 0076 174A     		ldr	r2, .L39+8
 576 0078 04EB4403 		add	r3, r4, r4, lsl #1
 577 007c D118     		adds	r1, r2, r3
 578 007e D75C     		ldrb	r7, [r2, r3]	@ zero_extendqisi2
 579              	.LVL50:
 134:modules/BMI088/bmi088.c ****         BMI088AccelWriteSingleReg(bmi088, reg, data); // ÂÜôÂÖ•ÂØÑÂ≠òÂô®
 580              		.loc 1 134 9 is_stmt 1 view .LVU138
 134:modules/BMI088/bmi088.c ****         BMI088AccelWriteSingleReg(bmi088, reg, data); // ÂÜôÂÖ•ÂØÑÂ≠òÂô®
 581              		.loc 1 134 42 is_stmt 0 view .LVU139
ARM GAS  C:\Users\29237\AppData\Local\Temp\ccJtdqFt.s 			page 17


 582 0080 4D78     		ldrb	r5, [r1, #1]	@ zero_extendqisi2
 134:modules/BMI088/bmi088.c ****         BMI088AccelWriteSingleReg(bmi088, reg, data); // ÂÜôÂÖ•ÂØÑÂ≠òÂô®
 583              		.loc 1 134 14 view .LVU140
 584 0082 8DF80650 		strb	r5, [sp, #6]
 135:modules/BMI088/bmi088.c ****         DWT_Delay(0.01);
 585              		.loc 1 135 9 is_stmt 1 view .LVU141
 586 0086 2A46     		mov	r2, r5
 587 0088 3946     		mov	r1, r7
 588 008a 3046     		mov	r0, r6
 589 008c FFF7FEFF 		bl	BMI088AccelWriteSingleReg
 590              	.LVL51:
 136:modules/BMI088/bmi088.c ****         BMI088AccelRead(bmi088, reg, &data, 1); // ÂÜôÂÆå‰πãÂêéÁ´ãÂàªËØªÂõûÊ£ÄÊü•
 591              		.loc 1 136 9 view .LVU142
 592 0090 9FED118A 		vldr.32	s16, .L39+12
 593 0094 B0EE480A 		vmov.f32	s0, s16
 594 0098 FFF7FEFF 		bl	DWT_Delay
 595              	.LVL52:
 137:modules/BMI088/bmi088.c ****         DWT_Delay(0.01);
 596              		.loc 1 137 9 view .LVU143
 597 009c 0123     		movs	r3, #1
 598 009e 0DF10602 		add	r2, sp, #6
 599 00a2 3946     		mov	r1, r7
 600 00a4 3046     		mov	r0, r6
 601 00a6 FFF7FEFF 		bl	BMI088AccelRead
 602              	.LVL53:
 138:modules/BMI088/bmi088.c ****         if (data != BMI088_Accel_Init_Table[i][BMI088DATA])
 603              		.loc 1 138 9 view .LVU144
 604 00aa B0EE480A 		vmov.f32	s0, s16
 605 00ae FFF7FEFF 		bl	DWT_Delay
 606              	.LVL54:
 139:modules/BMI088/bmi088.c ****             error |= BMI088_Accel_Init_Table[i][BMI088ERROR];
 607              		.loc 1 139 9 view .LVU145
 139:modules/BMI088/bmi088.c ****             error |= BMI088_Accel_Init_Table[i][BMI088ERROR];
 608              		.loc 1 139 18 is_stmt 0 view .LVU146
 609 00b2 9DF80630 		ldrb	r3, [sp, #6]	@ zero_extendqisi2
 139:modules/BMI088/bmi088.c ****             error |= BMI088_Accel_Init_Table[i][BMI088ERROR];
 610              		.loc 1 139 12 view .LVU147
 611 00b6 9D42     		cmp	r5, r3
 612 00b8 D9D0     		beq	.L34
 140:modules/BMI088/bmi088.c ****         //{i--;} ÂèØ‰ª•ËÆæÁΩÆretryÊ¨°Êï∞,Â¶ÇÊûúretryÊ¨°Êï∞Áî®ÂÆå‰∫Ü,ÂàôËøîÂõûerror
 613              		.loc 1 140 13 is_stmt 1 view .LVU148
 140:modules/BMI088/bmi088.c ****         //{i--;} ÂèØ‰ª•ËÆæÁΩÆretryÊ¨°Êï∞,Â¶ÇÊûúretryÊ¨°Êï∞Áî®ÂÆå‰∫Ü,ÂàôËøîÂõûerror
 614              		.loc 1 140 48 is_stmt 0 view .LVU149
 615 00ba 04EB4402 		add	r2, r4, r4, lsl #1
 616 00be 054B     		ldr	r3, .L39+8
 617 00c0 1344     		add	r3, r3, r2
 618 00c2 9B78     		ldrb	r3, [r3, #2]	@ zero_extendqisi2
 140:modules/BMI088/bmi088.c ****         //{i--;} ÂèØ‰ª•ËÆæÁΩÆretryÊ¨°Êï∞,Â¶ÇÊûúretryÊ¨°Êï∞Áî®ÂÆå‰∫Ü,ÂàôËøîÂõûerror
 619              		.loc 1 140 19 view .LVU150
 620 00c4 43EA0808 		orr	r8, r3, r8
 621              	.LVL55:
 140:modules/BMI088/bmi088.c ****         //{i--;} ÂèØ‰ª•ËÆæÁΩÆretryÊ¨°Êï∞,Â¶ÇÊûúretryÊ¨°Êï∞Áî®ÂÆå‰∫Ü,ÂàôËøîÂõûerror
 622              		.loc 1 140 19 view .LVU151
 623 00c8 D1E7     		b	.L34
 624              	.L40:
 625 00ca 00BF     		.align	2
 626              	.L39:
ARM GAS  C:\Users\29237\AppData\Local\Temp\ccJtdqFt.s 			page 18


 627 00cc 6F12833A 		.word	981668463
 628 00d0 00000000 		.word	0
 629 00d4 00000000 		.word	BMI088_Accel_Init_Table
 630 00d8 0AD7233C 		.word	1008981770
 631              	.LBE4:
 632              		.cfi_endproc
 633              	.LFE280:
 635              		.section	.text.BMI088GyroWriteSingleReg,"ax",%progbits
 636              		.align	1
 637              		.syntax unified
 638              		.thumb
 639              		.thumb_func
 641              	BMI088GyroWriteSingleReg:
 642              	.LVL56:
 643              	.LFB279:
  75:modules/BMI088/bmi088.c ****     uint8_t tx[2] = {reg, data};
 644              		.loc 1 75 1 is_stmt 1 view -0
 645              		.cfi_startproc
 646              		@ args = 0, pretend = 0, frame = 8
 647              		@ frame_needed = 0, uses_anonymous_args = 0
  75:modules/BMI088/bmi088.c ****     uint8_t tx[2] = {reg, data};
 648              		.loc 1 75 1 is_stmt 0 view .LVU153
 649 0000 00B5     		push	{lr}
 650              	.LCFI13:
 651              		.cfi_def_cfa_offset 4
 652              		.cfi_offset 14, -4
 653 0002 83B0     		sub	sp, sp, #12
 654              	.LCFI14:
 655              		.cfi_def_cfa_offset 16
  76:modules/BMI088/bmi088.c ****     SPITransmit(bmi088->spi_gyro, tx, 2);
 656              		.loc 1 76 5 is_stmt 1 view .LVU154
  76:modules/BMI088/bmi088.c ****     SPITransmit(bmi088->spi_gyro, tx, 2);
 657              		.loc 1 76 13 is_stmt 0 view .LVU155
 658 0004 8DF80410 		strb	r1, [sp, #4]
 659 0008 8DF80520 		strb	r2, [sp, #5]
  77:modules/BMI088/bmi088.c **** }
 660              		.loc 1 77 5 is_stmt 1 view .LVU156
 661 000c 0222     		movs	r2, #2
 662              	.LVL57:
  77:modules/BMI088/bmi088.c **** }
 663              		.loc 1 77 5 is_stmt 0 view .LVU157
 664 000e 01A9     		add	r1, sp, #4
 665              	.LVL58:
  77:modules/BMI088/bmi088.c **** }
 666              		.loc 1 77 5 view .LVU158
 667 0010 4068     		ldr	r0, [r0, #4]
 668              	.LVL59:
  77:modules/BMI088/bmi088.c **** }
 669              		.loc 1 77 5 view .LVU159
 670 0012 FFF7FEFF 		bl	SPITransmit
 671              	.LVL60:
  78:modules/BMI088/bmi088.c **** // -------------------------‰ª•‰∏ä‰∏∫ÁßÅÊúâÂáΩÊï∞,Â∞ÅË£Ö‰∫ÜBMI088ÂØÑÂ≠òÂô®ËØªÂÜôÂáΩÊï∞,blocking----
 672              		.loc 1 78 1 view .LVU160
 673 0016 03B0     		add	sp, sp, #12
 674              	.LCFI15:
 675              		.cfi_def_cfa_offset 4
 676              		@ sp needed
ARM GAS  C:\Users\29237\AppData\Local\Temp\ccJtdqFt.s 			page 19


 677 0018 5DF804FB 		ldr	pc, [sp], #4
 678              		.cfi_endproc
 679              	.LFE279:
 681              		.section	.text.BMI088GyroInit,"ax",%progbits
 682              		.align	1
 683              		.syntax unified
 684              		.thumb
 685              		.thumb_func
 687              	BMI088GyroInit:
 688              	.LVL61:
 689              	.LFB281:
 153:modules/BMI088/bmi088.c ****     // ÂêéÁª≠Ê∑ªÂä†resetÂíåÈÄö‰ø°Ê£ÄÊü•?
 690              		.loc 1 153 1 is_stmt 1 view -0
 691              		.cfi_startproc
 692              		@ args = 0, pretend = 0, frame = 8
 693              		@ frame_needed = 0, uses_anonymous_args = 0
 153:modules/BMI088/bmi088.c ****     // ÂêéÁª≠Ê∑ªÂä†resetÂíåÈÄö‰ø°Ê£ÄÊü•?
 694              		.loc 1 153 1 is_stmt 0 view .LVU162
 695 0000 2DE9F041 		push	{r4, r5, r6, r7, r8, lr}
 696              	.LCFI16:
 697              		.cfi_def_cfa_offset 24
 698              		.cfi_offset 4, -24
 699              		.cfi_offset 5, -20
 700              		.cfi_offset 6, -16
 701              		.cfi_offset 7, -12
 702              		.cfi_offset 8, -8
 703              		.cfi_offset 14, -4
 704 0004 2DED028B 		vpush.64	{d8}
 705              	.LCFI17:
 706              		.cfi_def_cfa_offset 32
 707              		.cfi_offset 80, -32
 708              		.cfi_offset 81, -28
 709 0008 82B0     		sub	sp, sp, #8
 710              	.LCFI18:
 711              		.cfi_def_cfa_offset 40
 712 000a 0646     		mov	r6, r0
 156:modules/BMI088/bmi088.c ****     DWT_Delay(0.08);
 713              		.loc 1 156 5 is_stmt 1 view .LVU163
 714 000c B622     		movs	r2, #182
 715 000e 1421     		movs	r1, #20
 716 0010 FFF7FEFF 		bl	BMI088GyroWriteSingleReg
 717              	.LVL62:
 157:modules/BMI088/bmi088.c **** 
 718              		.loc 1 157 5 view .LVU164
 719 0014 9FED280A 		vldr.32	s0, .L51
 720 0018 FFF7FEFF 		bl	DWT_Delay
 721              	.LVL63:
 160:modules/BMI088/bmi088.c ****     BMI088GyroRead(bmi088, BMI088_GYRO_CHIP_ID, &whoami_check, 1);
 722              		.loc 1 160 5 view .LVU165
 160:modules/BMI088/bmi088.c ****     BMI088GyroRead(bmi088, BMI088_GYRO_CHIP_ID, &whoami_check, 1);
 723              		.loc 1 160 13 is_stmt 0 view .LVU166
 724 001c 0021     		movs	r1, #0
 725 001e 8DF80710 		strb	r1, [sp, #7]
 161:modules/BMI088/bmi088.c ****     if (whoami_check != BMI088_GYRO_CHIP_ID_VALUE)
 726              		.loc 1 161 5 is_stmt 1 view .LVU167
 727 0022 0123     		movs	r3, #1
 728 0024 0DF10702 		add	r2, sp, #7
ARM GAS  C:\Users\29237\AppData\Local\Temp\ccJtdqFt.s 			page 20


 729 0028 3046     		mov	r0, r6
 730 002a FFF7FEFF 		bl	BMI088GyroRead
 731              	.LVL64:
 162:modules/BMI088/bmi088.c ****         return BMI088_NO_SENSOR;
 732              		.loc 1 162 5 view .LVU168
 162:modules/BMI088/bmi088.c ****         return BMI088_NO_SENSOR;
 733              		.loc 1 162 22 is_stmt 0 view .LVU169
 734 002e 9DF80730 		ldrb	r3, [sp, #7]	@ zero_extendqisi2
 162:modules/BMI088/bmi088.c ****         return BMI088_NO_SENSOR;
 735              		.loc 1 162 8 view .LVU170
 736 0032 0F2B     		cmp	r3, #15
 737 0034 07D0     		beq	.L50
 163:modules/BMI088/bmi088.c ****     DWT_Delay(0.001);
 738              		.loc 1 163 16 view .LVU171
 739 0036 4FF0FF08 		mov	r8, #255
 740              	.L44:
 184:modules/BMI088/bmi088.c **** // -------------------------‰ª•‰∏ä‰∏∫ÁßÅÊúâÂáΩÊï∞,Áî®‰∫éÂàùÂßãÂåñBMI088accÂíågyroÁöÑÁ°¨‰ª∂ÂíåÈÖçÁΩÆ
 741              		.loc 1 184 1 view .LVU172
 742 003a 4046     		mov	r0, r8
 743 003c 02B0     		add	sp, sp, #8
 744              	.LCFI19:
 745              		.cfi_remember_state
 746              		.cfi_def_cfa_offset 32
 747              		@ sp needed
 748 003e BDEC028B 		vldm	sp!, {d8}
 749              	.LCFI20:
 750              		.cfi_restore 80
 751              		.cfi_restore 81
 752              		.cfi_def_cfa_offset 24
 753 0042 BDE8F081 		pop	{r4, r5, r6, r7, r8, pc}
 754              	.LVL65:
 755              	.L50:
 756              	.LCFI21:
 757              		.cfi_restore_state
 164:modules/BMI088/bmi088.c **** 
 758              		.loc 1 164 5 is_stmt 1 view .LVU173
 759 0046 9FED1D0A 		vldr.32	s0, .L51+4
 760 004a FFF7FEFF 		bl	DWT_Delay
 761              	.LVL66:
 167:modules/BMI088/bmi088.c ****     BMI088_ERORR_CODE_e error = 0;
 762              		.loc 1 167 5 view .LVU174
 167:modules/BMI088/bmi088.c ****     BMI088_ERORR_CODE_e error = 0;
 763              		.loc 1 167 22 is_stmt 0 view .LVU175
 764 004e 4FF00008 		mov	r8, #0
 765 0052 8DF80680 		strb	r8, [sp, #6]
 168:modules/BMI088/bmi088.c ****     // ‰ΩøÁî®sizeofËÄå‰∏çÊòØmagic number,ËøôÊ†∑Â¶ÇÊûú‰øÆÊîπ‰∫ÜÊï∞ÁªÑÂ§ßÂ∞è,‰∏çÁî®‰øÆÊîπËøôÈáåÁöÑ‰ª£
 766              		.loc 1 168 5 is_stmt 1 view .LVU176
 767              	.LVL67:
 170:modules/BMI088/bmi088.c ****     {
 768              		.loc 1 170 5 view .LVU177
 769              	.LBB5:
 170:modules/BMI088/bmi088.c ****     {
 770              		.loc 1 170 10 view .LVU178
 170:modules/BMI088/bmi088.c ****     {
 771              		.loc 1 170 18 is_stmt 0 view .LVU179
 772 0056 4446     		mov	r4, r8
 170:modules/BMI088/bmi088.c ****     {
ARM GAS  C:\Users\29237\AppData\Local\Temp\ccJtdqFt.s 			page 21


 773              		.loc 1 170 5 view .LVU180
 774 0058 01E0     		b	.L45
 775              	.LVL68:
 776              	.L46:
 170:modules/BMI088/bmi088.c ****     {
 777              		.loc 1 170 98 is_stmt 1 discriminator 2 view .LVU181
 778 005a 0134     		adds	r4, r4, #1
 779              	.LVL69:
 170:modules/BMI088/bmi088.c ****     {
 780              		.loc 1 170 98 is_stmt 0 discriminator 2 view .LVU182
 781 005c E4B2     		uxtb	r4, r4
 782              	.LVL70:
 783              	.L45:
 170:modules/BMI088/bmi088.c ****     {
 784              		.loc 1 170 27 is_stmt 1 discriminator 1 view .LVU183
 785 005e 052C     		cmp	r4, #5
 786 0060 EBD8     		bhi	.L44
 172:modules/BMI088/bmi088.c ****         data = BMI088_Gyro_Init_Table[i][BMI088DATA];
 787              		.loc 1 172 9 view .LVU184
 172:modules/BMI088/bmi088.c ****         data = BMI088_Gyro_Init_Table[i][BMI088DATA];
 788              		.loc 1 172 13 is_stmt 0 view .LVU185
 789 0062 174A     		ldr	r2, .L51+8
 790 0064 04EB4403 		add	r3, r4, r4, lsl #1
 791 0068 D118     		adds	r1, r2, r3
 792 006a D75C     		ldrb	r7, [r2, r3]	@ zero_extendqisi2
 793              	.LVL71:
 173:modules/BMI088/bmi088.c ****         BMI088GyroWriteSingleReg(bmi088, reg, data); // ÂÜôÂÖ•ÂØÑÂ≠òÂô®
 794              		.loc 1 173 9 is_stmt 1 view .LVU186
 173:modules/BMI088/bmi088.c ****         BMI088GyroWriteSingleReg(bmi088, reg, data); // ÂÜôÂÖ•ÂØÑÂ≠òÂô®
 795              		.loc 1 173 41 is_stmt 0 view .LVU187
 796 006c 4D78     		ldrb	r5, [r1, #1]	@ zero_extendqisi2
 173:modules/BMI088/bmi088.c ****         BMI088GyroWriteSingleReg(bmi088, reg, data); // ÂÜôÂÖ•ÂØÑÂ≠òÂô®
 797              		.loc 1 173 14 view .LVU188
 798 006e 8DF80650 		strb	r5, [sp, #6]
 174:modules/BMI088/bmi088.c ****         DWT_Delay(0.001);
 799              		.loc 1 174 9 is_stmt 1 view .LVU189
 800 0072 2A46     		mov	r2, r5
 801 0074 3946     		mov	r1, r7
 802 0076 3046     		mov	r0, r6
 803 0078 FFF7FEFF 		bl	BMI088GyroWriteSingleReg
 804              	.LVL72:
 175:modules/BMI088/bmi088.c ****         BMI088GyroRead(bmi088, reg, &data, 1); // ÂÜôÂÆå‰πãÂêéÁ´ãÂàªËØªÂõûÂØπÂ∫îÂØÑÂ≠òÂô®Ê£ÄÊü•ÊòØÂ
 805              		.loc 1 175 9 view .LVU190
 806 007c 9FED0F8A 		vldr.32	s16, .L51+4
 807 0080 B0EE480A 		vmov.f32	s0, s16
 808 0084 FFF7FEFF 		bl	DWT_Delay
 809              	.LVL73:
 176:modules/BMI088/bmi088.c ****         DWT_Delay(0.001);
 810              		.loc 1 176 9 view .LVU191
 811 0088 0123     		movs	r3, #1
 812 008a 0DF10602 		add	r2, sp, #6
 813 008e 3946     		mov	r1, r7
 814 0090 3046     		mov	r0, r6
 815 0092 FFF7FEFF 		bl	BMI088GyroRead
 816              	.LVL74:
 177:modules/BMI088/bmi088.c ****         if (data != BMI088_Gyro_Init_Table[i][BMI088DATA])
 817              		.loc 1 177 9 view .LVU192
ARM GAS  C:\Users\29237\AppData\Local\Temp\ccJtdqFt.s 			page 22


 818 0096 B0EE480A 		vmov.f32	s0, s16
 819 009a FFF7FEFF 		bl	DWT_Delay
 820              	.LVL75:
 178:modules/BMI088/bmi088.c ****             error |= BMI088_Gyro_Init_Table[i][BMI088ERROR];
 821              		.loc 1 178 9 view .LVU193
 178:modules/BMI088/bmi088.c ****             error |= BMI088_Gyro_Init_Table[i][BMI088ERROR];
 822              		.loc 1 178 18 is_stmt 0 view .LVU194
 823 009e 9DF80630 		ldrb	r3, [sp, #6]	@ zero_extendqisi2
 178:modules/BMI088/bmi088.c ****             error |= BMI088_Gyro_Init_Table[i][BMI088ERROR];
 824              		.loc 1 178 12 view .LVU195
 825 00a2 9D42     		cmp	r5, r3
 826 00a4 D9D0     		beq	.L46
 179:modules/BMI088/bmi088.c ****         //{i--;} ÂèØ‰ª•ËÆæÁΩÆretryÊ¨°Êï∞,Â∞ùËØïÈáçÊñ∞ÂÜôÂÖ•.Â¶ÇÊûúretryÊ¨°Êï∞Áî®ÂÆå‰∫Ü,ÂàôËøîÂõûerr
 827              		.loc 1 179 13 is_stmt 1 view .LVU196
 179:modules/BMI088/bmi088.c ****         //{i--;} ÂèØ‰ª•ËÆæÁΩÆretryÊ¨°Êï∞,Â∞ùËØïÈáçÊñ∞ÂÜôÂÖ•.Â¶ÇÊûúretryÊ¨°Êï∞Áî®ÂÆå‰∫Ü,ÂàôËøîÂõûerr
 828              		.loc 1 179 47 is_stmt 0 view .LVU197
 829 00a6 04EB4402 		add	r2, r4, r4, lsl #1
 830 00aa 054B     		ldr	r3, .L51+8
 831 00ac 1344     		add	r3, r3, r2
 832 00ae 9B78     		ldrb	r3, [r3, #2]	@ zero_extendqisi2
 179:modules/BMI088/bmi088.c ****         //{i--;} ÂèØ‰ª•ËÆæÁΩÆretryÊ¨°Êï∞,Â∞ùËØïÈáçÊñ∞ÂÜôÂÖ•.Â¶ÇÊûúretryÊ¨°Êï∞Áî®ÂÆå‰∫Ü,ÂàôËøîÂõûerr
 833              		.loc 1 179 19 view .LVU198
 834 00b0 43EA0808 		orr	r8, r3, r8
 835              	.LVL76:
 179:modules/BMI088/bmi088.c ****         //{i--;} ÂèØ‰ª•ËÆæÁΩÆretryÊ¨°Êï∞,Â∞ùËØïÈáçÊñ∞ÂÜôÂÖ•.Â¶ÇÊûúretryÊ¨°Êï∞Áî®ÂÆå‰∫Ü,ÂàôËøîÂõûerr
 836              		.loc 1 179 19 view .LVU199
 837 00b4 D1E7     		b	.L46
 838              	.L52:
 839 00b6 00BF     		.align	2
 840              	.L51:
 841 00b8 0AD7A33D 		.word	1034147594
 842 00bc 6F12833A 		.word	981668463
 843 00c0 00000000 		.word	BMI088_Gyro_Init_Table
 844              	.LBE5:
 845              		.cfi_endproc
 846              	.LFE281:
 848              		.section	.text.BMI088Acquire,"ax",%progbits
 849              		.align	1
 850              		.global	BMI088Acquire
 851              		.syntax unified
 852              		.thumb
 853              		.thumb_func
 855              	BMI088Acquire:
 856              	.LVL77:
 857              	.LFB286:
 240:modules/BMI088/bmi088.c **** 
 241:modules/BMI088/bmi088.c **** // -------------------------‰ª•‰∏ä‰∏∫ÁßÅÊúâÂáΩÊï∞,privateÁî®‰∫éITÊ®°Âºè‰∏ãÁöÑ‰∏≠Êñ≠Â§ÑÁêÜ----------
 242:modules/BMI088/bmi088.c **** 
 243:modules/BMI088/bmi088.c **** // -------------------------‰ª•‰∏ã‰∏∫ÂÖ¨ÊúâÂáΩÊï∞,Áî®‰∫éÊ≥®ÂÜåBMI088,Ê†áÂÆöÂíåÊï∞ÊçÆËØªÂèñ---------
 244:modules/BMI088/bmi088.c **** 
 245:modules/BMI088/bmi088.c **** /**
 246:modules/BMI088/bmi088.c ****  * @brief
 247:modules/BMI088/bmi088.c ****  * @todo Áé∞Âú®Ë¶ÅËÄÉËôë‰∏Ä‰∏ãÊï∞ÊçÆËøîÂõûÁöÑÊñπÂºè,ÊåáÈíàËøòÊòØÁªìÊûÑ‰Ωì?
 248:modules/BMI088/bmi088.c ****  *
 249:modules/BMI088/bmi088.c ****  * @param bmi088
 250:modules/BMI088/bmi088.c ****  * @return BMI088_Data_t
 251:modules/BMI088/bmi088.c ****  */
ARM GAS  C:\Users\29237\AppData\Local\Temp\ccJtdqFt.s 			page 23


 252:modules/BMI088/bmi088.c **** uint8_t BMI088Acquire(BMI088Instance *bmi088, BMI088_Data_t *data_store)
 253:modules/BMI088/bmi088.c **** {
 858              		.loc 1 253 1 is_stmt 1 view -0
 859              		.cfi_startproc
 860              		@ args = 0, pretend = 0, frame = 0
 861              		@ frame_needed = 0, uses_anonymous_args = 0
 862              		.loc 1 253 1 is_stmt 0 view .LVU201
 863 0000 70B5     		push	{r4, r5, r6, lr}
 864              	.LCFI22:
 865              		.cfi_def_cfa_offset 16
 866              		.cfi_offset 4, -16
 867              		.cfi_offset 5, -12
 868              		.cfi_offset 6, -8
 869              		.cfi_offset 14, -4
 870 0002 0546     		mov	r5, r0
 871 0004 0E46     		mov	r6, r1
 254:modules/BMI088/bmi088.c ****     // Â¶ÇÊûúÊòØblockingÊ®°Âºè,Âàô‰∏ªÂä®Ëß¶Âèë‰∏ÄÊ¨°ËØªÂèñÂπ∂ËøîÂõûÊï∞ÊçÆ
 255:modules/BMI088/bmi088.c ****     if (bmi088->work_mode == BMI088_BLOCK_PERIODIC_MODE)
 872              		.loc 1 255 5 is_stmt 1 view .LVU202
 873              		.loc 1 255 15 is_stmt 0 view .LVU203
 874 0006 0478     		ldrb	r4, [r0]	@ zero_extendqisi2
 875              		.loc 1 255 8 view .LVU204
 876 0008 4CB1     		cbz	r4, .L64
 256:modules/BMI088/bmi088.c ****     {
 257:modules/BMI088/bmi088.c ****         static uint8_t buf[6] = {0}; // ÊúÄÂ§öËØªÂèñ6‰∏™byte(gyro/acc,tempÊòØ2)
 258:modules/BMI088/bmi088.c ****         // ËØªÂèñaccelÁöÑxËΩ¥Êï∞ÊçÆÈ¶ñÂú∞ÂùÄ,bmi088ÂÜÖÈÉ®Ëá™Â¢ûËØªÂèñÂú∞ÂùÄ // 3* sizeof(int16_t)
 259:modules/BMI088/bmi088.c ****         BMI088AccelRead(bmi088, BMI088_ACCEL_XOUT_L, buf, 6);
 260:modules/BMI088/bmi088.c ****         for (uint8_t i = 0; i < 3; i++)
 261:modules/BMI088/bmi088.c ****             data_store->acc[i] = bmi088->acc_coef * (float)(int16_t)(((buf[2 * i + 1]) << 8) | buf[
 262:modules/BMI088/bmi088.c ****         BMI088GyroRead(bmi088, BMI088_GYRO_X_L, buf, 6); // ËøûÁª≠ËØªÂèñ3‰∏™(3*2=6)ËΩ¥ÁöÑËßíÈÄüÂ∫¶
 263:modules/BMI088/bmi088.c ****         for (uint8_t i = 0; i < 3; i++)
 264:modules/BMI088/bmi088.c ****             data_store->gyro[i] = bmi088->BMI088_GYRO_SEN * (float)(int16_t)(((buf[2 * i + 1]) << 8
 265:modules/BMI088/bmi088.c ****         BMI088AccelRead(bmi088, BMI088_TEMP_M, buf, 2); // ËØªÊ∏©Â∫¶,Ê∏©Â∫¶‰º†ÊÑüÂô®Âú®accel‰∏ä
 266:modules/BMI088/bmi088.c ****         data_store->temperature = (float)(int16_t)(((buf[0] << 3) | (buf[1] >> 5))) * BMI088_TEMP_F
 267:modules/BMI088/bmi088.c **** 
 268:modules/BMI088/bmi088.c ****         return 1;
 269:modules/BMI088/bmi088.c ****     }
 270:modules/BMI088/bmi088.c **** 
 271:modules/BMI088/bmi088.c ****     // Â¶ÇÊûúÊòØITÊ®°Âºè,ÂàôÊ£ÄÊü•Ê†áÂøó‰Ωç.ÂΩì‰º†ÊÑüÂô®Êï∞ÊçÆÂáÜÂ§áÂ•Ω‰ºöËß¶ÂèëÂ§ñÈÉ®‰∏≠Êñ≠,‰∏≠Êñ≠
 272:modules/BMI088/bmi088.c ****     if (bmi088->work_mode == BMI088_BLOCK_TRIGGER_MODE && bmi088->update_flag.imu_ready == 1)
 877              		.loc 1 272 5 is_stmt 1 view .LVU205
 878              		.loc 1 272 8 is_stmt 0 view .LVU206
 879 000a 012C     		cmp	r4, #1
 880 000c 66D0     		beq	.L65
 881              	.L60:
 273:modules/BMI088/bmi088.c ****     {
 274:modules/BMI088/bmi088.c ****         if(bmi088->update_flag.acc == 1)
 275:modules/BMI088/bmi088.c ****         {
 276:modules/BMI088/bmi088.c ****             memcpy(data_store->acc,bmi088->acc,3*sizeof(float));
 277:modules/BMI088/bmi088.c ****             bmi088->update_flag.acc = 0;
 278:modules/BMI088/bmi088.c ****             bmi088->update_flag.imu_ready = 0;
 279:modules/BMI088/bmi088.c ****         }
 280:modules/BMI088/bmi088.c ****         if(bmi088->update_flag.gyro == 1)
 281:modules/BMI088/bmi088.c ****         {
 282:modules/BMI088/bmi088.c ****             memcpy(data_store->gyro,bmi088->gyro,3*sizeof(float));
 283:modules/BMI088/bmi088.c ****             bmi088->update_flag.gyro = 0;
 284:modules/BMI088/bmi088.c ****             bmi088->update_flag.imu_ready = 0;
ARM GAS  C:\Users\29237\AppData\Local\Temp\ccJtdqFt.s 			page 24


 285:modules/BMI088/bmi088.c ****         }
 286:modules/BMI088/bmi088.c **** 
 287:modules/BMI088/bmi088.c ****         return 1;
 288:modules/BMI088/bmi088.c ****     }
 289:modules/BMI088/bmi088.c **** 
 290:modules/BMI088/bmi088.c ****     // Â¶ÇÊûúÊï∞ÊçÆËøòÊ≤°ÂáÜÂ§áÂ•Ω,ÂàôËøîÂõûÁ©∫Êï∞ÊçÆ?ÊàñËÄÖËøîÂõû‰∏ä‰∏ÄÊ¨°ÁöÑÊï∞ÊçÆ?ÊàñËÄÖËøîÂõûÈî
 291:modules/BMI088/bmi088.c ****     if (bmi088->update_flag.imu_ready == 0)
 882              		.loc 1 291 5 is_stmt 1 view .LVU207
 883              		.loc 1 291 39 is_stmt 0 view .LVU208
 884 000e 95F8D040 		ldrb	r4, [r5, #208]	@ zero_extendqisi2
 885              		.loc 1 291 8 view .LVU209
 886 0012 14F04004 		ands	r4, r4, #64
 887 0016 00D0     		beq	.L59
 292:modules/BMI088/bmi088.c ****         return 0;
 293:modules/BMI088/bmi088.c ****     return 1;
 888              		.loc 1 293 12 view .LVU210
 889 0018 0124     		movs	r4, #1
 890              	.LVL78:
 891              	.L59:
 294:modules/BMI088/bmi088.c **** }
 892              		.loc 1 294 1 view .LVU211
 893 001a 2046     		mov	r0, r4
 894 001c 70BD     		pop	{r4, r5, r6, pc}
 895              	.LVL79:
 896              	.L64:
 897              	.LBB6:
 257:modules/BMI088/bmi088.c ****         // ËØªÂèñaccelÁöÑxËΩ¥Êï∞ÊçÆÈ¶ñÂú∞ÂùÄ,bmi088ÂÜÖÈÉ®Ëá™Â¢ûËØªÂèñÂú∞ÂùÄ // 3* sizeof(int16_t)
 898              		.loc 1 257 9 is_stmt 1 view .LVU212
 259:modules/BMI088/bmi088.c ****         for (uint8_t i = 0; i < 3; i++)
 899              		.loc 1 259 9 view .LVU213
 900 001e 0623     		movs	r3, #6
 901 0020 4A4A     		ldr	r2, .L67
 902 0022 1221     		movs	r1, #18
 903              	.LVL80:
 259:modules/BMI088/bmi088.c ****         for (uint8_t i = 0; i < 3; i++)
 904              		.loc 1 259 9 is_stmt 0 view .LVU214
 905 0024 FFF7FEFF 		bl	BMI088AccelRead
 906              	.LVL81:
 260:modules/BMI088/bmi088.c ****             data_store->acc[i] = bmi088->acc_coef * (float)(int16_t)(((buf[2 * i + 1]) << 8) | buf[
 907              		.loc 1 260 9 is_stmt 1 view .LVU215
 908              	.LBB7:
 260:modules/BMI088/bmi088.c ****             data_store->acc[i] = bmi088->acc_coef * (float)(int16_t)(((buf[2 * i + 1]) << 8) | buf[
 909              		.loc 1 260 14 view .LVU216
 260:modules/BMI088/bmi088.c ****             data_store->acc[i] = bmi088->acc_coef * (float)(int16_t)(((buf[2 * i + 1]) << 8) | buf[
 910              		.loc 1 260 22 is_stmt 0 view .LVU217
 911 0028 2346     		mov	r3, r4
 260:modules/BMI088/bmi088.c ****             data_store->acc[i] = bmi088->acc_coef * (float)(int16_t)(((buf[2 * i + 1]) << 8) | buf[
 912              		.loc 1 260 9 view .LVU218
 913 002a 18E0     		b	.L55
 914              	.LVL82:
 915              	.L56:
 261:modules/BMI088/bmi088.c ****         BMI088GyroRead(bmi088, BMI088_GYRO_X_L, buf, 6); // ËøûÁª≠ËØªÂèñ3‰∏™(3*2=6)ËΩ¥ÁöÑËßíÈÄüÂ∫¶
 916              		.loc 1 261 13 is_stmt 1 view .LVU219
 261:modules/BMI088/bmi088.c ****         BMI088GyroRead(bmi088, BMI088_GYRO_X_L, buf, 6); // ËøûÁª≠ËØªÂèñ3‰∏™(3*2=6)ËΩ¥ÁöÑËßíÈÄüÂ∫¶
 917              		.loc 1 261 40 is_stmt 0 view .LVU220
 918 002c 95ED307A 		vldr.32	s14, [r5, #192]
 261:modules/BMI088/bmi088.c ****         BMI088GyroRead(bmi088, BMI088_GYRO_X_L, buf, 6); // ËøûÁª≠ËØªÂèñ3‰∏™(3*2=6)ËΩ¥ÁöÑËßíÈÄüÂ∫¶
ARM GAS  C:\Users\29237\AppData\Local\Temp\ccJtdqFt.s 			page 25


 919              		.loc 1 261 78 view .LVU221
 920 0030 5A00     		lsls	r2, r3, #1
 261:modules/BMI088/bmi088.c ****         BMI088GyroRead(bmi088, BMI088_GYRO_X_L, buf, 6); // ËøûÁª≠ËØªÂèñ3‰∏™(3*2=6)ËΩ¥ÁöÑËßíÈÄüÂ∫¶
 921              		.loc 1 261 82 view .LVU222
 922 0032 0132     		adds	r2, r2, #1
 261:modules/BMI088/bmi088.c ****         BMI088GyroRead(bmi088, BMI088_GYRO_X_L, buf, 6); // ËøûÁª≠ËØªÂèñ3‰∏™(3*2=6)ËΩ¥ÁöÑËßíÈÄüÂ∫¶
 923              		.loc 1 261 75 view .LVU223
 924 0034 4549     		ldr	r1, .L67
 925 0036 885C     		ldrb	r0, [r1, r2]	@ zero_extendqisi2
 261:modules/BMI088/bmi088.c ****         BMI088GyroRead(bmi088, BMI088_GYRO_X_L, buf, 6); // ËøûÁª≠ËØªÂèñ3‰∏™(3*2=6)ËΩ¥ÁöÑËßíÈÄüÂ∫¶
 926              		.loc 1 261 99 view .LVU224
 927 0038 11F81320 		ldrb	r2, [r1, r3, lsl #1]	@ zero_extendqisi2
 261:modules/BMI088/bmi088.c ****         BMI088GyroRead(bmi088, BMI088_GYRO_X_L, buf, 6); // ËøûÁª≠ËØªÂèñ3‰∏™(3*2=6)ËΩ¥ÁöÑËßíÈÄüÂ∫¶
 928              		.loc 1 261 60 view .LVU225
 929 003c 42EA0022 		orr	r2, r2, r0, lsl #8
 930 0040 12B2     		sxth	r2, r2
 261:modules/BMI088/bmi088.c ****         BMI088GyroRead(bmi088, BMI088_GYRO_X_L, buf, 6); // ËøûÁª≠ËØªÂèñ3‰∏™(3*2=6)ËΩ¥ÁöÑËßíÈÄüÂ∫¶
 931              		.loc 1 261 53 view .LVU226
 932 0042 07EE902A 		vmov	s15, r2	@ int
 933 0046 F8EEE77A 		vcvt.f32.s32	s15, s15
 261:modules/BMI088/bmi088.c ****         BMI088GyroRead(bmi088, BMI088_GYRO_X_L, buf, 6); // ËøûÁª≠ËØªÂèñ3‰∏™(3*2=6)ËΩ¥ÁöÑËßíÈÄüÂ∫¶
 934              		.loc 1 261 32 view .LVU227
 935 004a 9A1C     		adds	r2, r3, #2
 936 004c 06EB8202 		add	r2, r6, r2, lsl #2
 937 0050 27EE277A 		vmul.f32	s14, s14, s15
 938 0054 17EE101A 		vmov	r1, s14	@ int
 939 0058 5160     		str	r1, [r2, #4]	@ unaligned
 260:modules/BMI088/bmi088.c ****             data_store->acc[i] = bmi088->acc_coef * (float)(int16_t)(((buf[2 * i + 1]) << 8) | buf[
 940              		.loc 1 260 37 is_stmt 1 discriminator 3 view .LVU228
 941 005a 0133     		adds	r3, r3, #1
 942              	.LVL83:
 260:modules/BMI088/bmi088.c ****             data_store->acc[i] = bmi088->acc_coef * (float)(int16_t)(((buf[2 * i + 1]) << 8) | buf[
 943              		.loc 1 260 37 is_stmt 0 discriminator 3 view .LVU229
 944 005c DBB2     		uxtb	r3, r3
 945              	.LVL84:
 946              	.L55:
 260:modules/BMI088/bmi088.c ****             data_store->acc[i] = bmi088->acc_coef * (float)(int16_t)(((buf[2 * i + 1]) << 8) | buf[
 947              		.loc 1 260 31 is_stmt 1 discriminator 1 view .LVU230
 948 005e 022B     		cmp	r3, #2
 949 0060 E4D9     		bls	.L56
 950              	.LBE7:
 262:modules/BMI088/bmi088.c ****         for (uint8_t i = 0; i < 3; i++)
 951              		.loc 1 262 9 view .LVU231
 952 0062 0623     		movs	r3, #6
 953              	.LVL85:
 262:modules/BMI088/bmi088.c ****         for (uint8_t i = 0; i < 3; i++)
 954              		.loc 1 262 9 is_stmt 0 view .LVU232
 955 0064 394A     		ldr	r2, .L67
 956 0066 0221     		movs	r1, #2
 957 0068 2846     		mov	r0, r5
 958 006a FFF7FEFF 		bl	BMI088GyroRead
 959              	.LVL86:
 263:modules/BMI088/bmi088.c ****             data_store->gyro[i] = bmi088->BMI088_GYRO_SEN * (float)(int16_t)(((buf[2 * i + 1]) << 8
 960              		.loc 1 263 9 is_stmt 1 view .LVU233
 961              	.LBB8:
 263:modules/BMI088/bmi088.c ****             data_store->gyro[i] = bmi088->BMI088_GYRO_SEN * (float)(int16_t)(((buf[2 * i + 1]) << 8
 962              		.loc 1 263 14 view .LVU234
ARM GAS  C:\Users\29237\AppData\Local\Temp\ccJtdqFt.s 			page 26


 263:modules/BMI088/bmi088.c ****             data_store->gyro[i] = bmi088->BMI088_GYRO_SEN * (float)(int16_t)(((buf[2 * i + 1]) << 8
 963              		.loc 1 263 9 is_stmt 0 view .LVU235
 964 006e 16E0     		b	.L57
 965              	.LVL87:
 966              	.L58:
 264:modules/BMI088/bmi088.c ****         BMI088AccelRead(bmi088, BMI088_TEMP_M, buf, 2); // ËØªÊ∏©Â∫¶,Ê∏©Â∫¶‰º†ÊÑüÂô®Âú®accel‰∏ä
 967              		.loc 1 264 13 is_stmt 1 view .LVU236
 264:modules/BMI088/bmi088.c ****         BMI088AccelRead(bmi088, BMI088_TEMP_M, buf, 2); // ËØªÊ∏©Â∫¶,Ê∏©Â∫¶‰º†ÊÑüÂô®Âú®accel‰∏ä
 968              		.loc 1 264 41 is_stmt 0 view .LVU237
 969 0070 95ED327A 		vldr.32	s14, [r5, #200]
 264:modules/BMI088/bmi088.c ****         BMI088AccelRead(bmi088, BMI088_TEMP_M, buf, 2); // ËØªÊ∏©Â∫¶,Ê∏©Â∫¶‰º†ÊÑüÂô®Âú®accel‰∏ä
 970              		.loc 1 264 86 view .LVU238
 971 0074 6300     		lsls	r3, r4, #1
 264:modules/BMI088/bmi088.c ****         BMI088AccelRead(bmi088, BMI088_TEMP_M, buf, 2); // ËØªÊ∏©Â∫¶,Ê∏©Â∫¶‰º†ÊÑüÂô®Âú®accel‰∏ä
 972              		.loc 1 264 90 view .LVU239
 973 0076 0133     		adds	r3, r3, #1
 264:modules/BMI088/bmi088.c ****         BMI088AccelRead(bmi088, BMI088_TEMP_M, buf, 2); // ËØªÊ∏©Â∫¶,Ê∏©Â∫¶‰º†ÊÑüÂô®Âú®accel‰∏ä
 974              		.loc 1 264 83 view .LVU240
 975 0078 344A     		ldr	r2, .L67
 976 007a D15C     		ldrb	r1, [r2, r3]	@ zero_extendqisi2
 264:modules/BMI088/bmi088.c ****         BMI088AccelRead(bmi088, BMI088_TEMP_M, buf, 2); // ËØªÊ∏©Â∫¶,Ê∏©Â∫¶‰º†ÊÑüÂô®Âú®accel‰∏ä
 977              		.loc 1 264 107 view .LVU241
 978 007c 12F81430 		ldrb	r3, [r2, r4, lsl #1]	@ zero_extendqisi2
 264:modules/BMI088/bmi088.c ****         BMI088AccelRead(bmi088, BMI088_TEMP_M, buf, 2); // ËØªÊ∏©Â∫¶,Ê∏©Â∫¶‰º†ÊÑüÂô®Âú®accel‰∏ä
 979              		.loc 1 264 68 view .LVU242
 980 0080 43EA0123 		orr	r3, r3, r1, lsl #8
 981 0084 1BB2     		sxth	r3, r3
 264:modules/BMI088/bmi088.c ****         BMI088AccelRead(bmi088, BMI088_TEMP_M, buf, 2); // ËØªÊ∏©Â∫¶,Ê∏©Â∫¶‰º†ÊÑüÂô®Âú®accel‰∏ä
 982              		.loc 1 264 61 view .LVU243
 983 0086 07EE903A 		vmov	s15, r3	@ int
 984 008a F8EEE77A 		vcvt.f32.s32	s15, s15
 264:modules/BMI088/bmi088.c ****         BMI088AccelRead(bmi088, BMI088_TEMP_M, buf, 2); // ËØªÊ∏©Â∫¶,Ê∏©Â∫¶‰º†ÊÑüÂô®Âú®accel‰∏ä
 985              		.loc 1 264 33 view .LVU244
 986 008e 27EE277A 		vmul.f32	s14, s14, s15
 987 0092 17EE103A 		vmov	r3, s14	@ int
 988 0096 46F82430 		str	r3, [r6, r4, lsl #2]	@ unaligned
 263:modules/BMI088/bmi088.c ****             data_store->gyro[i] = bmi088->BMI088_GYRO_SEN * (float)(int16_t)(((buf[2 * i + 1]) << 8
 989              		.loc 1 263 37 is_stmt 1 discriminator 3 view .LVU245
 990 009a 0134     		adds	r4, r4, #1
 991              	.LVL88:
 263:modules/BMI088/bmi088.c ****             data_store->gyro[i] = bmi088->BMI088_GYRO_SEN * (float)(int16_t)(((buf[2 * i + 1]) << 8
 992              		.loc 1 263 37 is_stmt 0 discriminator 3 view .LVU246
 993 009c E4B2     		uxtb	r4, r4
 994              	.LVL89:
 995              	.L57:
 263:modules/BMI088/bmi088.c ****             data_store->gyro[i] = bmi088->BMI088_GYRO_SEN * (float)(int16_t)(((buf[2 * i + 1]) << 8
 996              		.loc 1 263 31 is_stmt 1 discriminator 1 view .LVU247
 997 009e 022C     		cmp	r4, #2
 998 00a0 E6D9     		bls	.L58
 999              	.LBE8:
 265:modules/BMI088/bmi088.c ****         data_store->temperature = (float)(int16_t)(((buf[0] << 3) | (buf[1] >> 5))) * BMI088_TEMP_F
 1000              		.loc 1 265 9 view .LVU248
 1001 00a2 2A4C     		ldr	r4, .L67
 1002              	.LVL90:
 265:modules/BMI088/bmi088.c ****         data_store->temperature = (float)(int16_t)(((buf[0] << 3) | (buf[1] >> 5))) * BMI088_TEMP_F
 1003              		.loc 1 265 9 is_stmt 0 view .LVU249
 1004 00a4 0223     		movs	r3, #2
ARM GAS  C:\Users\29237\AppData\Local\Temp\ccJtdqFt.s 			page 27


 1005 00a6 2246     		mov	r2, r4
 1006 00a8 2221     		movs	r1, #34
 1007 00aa 2846     		mov	r0, r5
 1008 00ac FFF7FEFF 		bl	BMI088AccelRead
 1009              	.LVL91:
 266:modules/BMI088/bmi088.c **** 
 1010              		.loc 1 266 9 is_stmt 1 view .LVU250
 266:modules/BMI088/bmi088.c **** 
 1011              		.loc 1 266 57 is_stmt 0 view .LVU251
 1012 00b0 2278     		ldrb	r2, [r4]	@ zero_extendqisi2
 266:modules/BMI088/bmi088.c **** 
 1013              		.loc 1 266 73 view .LVU252
 1014 00b2 6378     		ldrb	r3, [r4, #1]	@ zero_extendqisi2
 266:modules/BMI088/bmi088.c **** 
 1015              		.loc 1 266 42 view .LVU253
 1016 00b4 5B09     		lsrs	r3, r3, #5
 1017 00b6 43EAC203 		orr	r3, r3, r2, lsl #3
 1018 00ba 07EE903A 		vmov	s15, r3	@ int
 266:modules/BMI088/bmi088.c **** 
 1019              		.loc 1 266 35 view .LVU254
 1020 00be F8EEE77A 		vcvt.f32.s32	s15, s15
 266:modules/BMI088/bmi088.c **** 
 1021              		.loc 1 266 85 view .LVU255
 1022 00c2 B4EE007A 		vmov.f32	s14, #1.25e-1
 1023 00c6 67EE877A 		vmul.f32	s15, s15, s14
 266:modules/BMI088/bmi088.c **** 
 1024              		.loc 1 266 33 view .LVU256
 1025 00ca B3EE077A 		vmov.f32	s14, #2.3e+1
 1026 00ce 77EE877A 		vadd.f32	s15, s15, s14
 1027 00d2 17EE903A 		vmov	r3, s15	@ int
 1028 00d6 B361     		str	r3, [r6, #24]	@ unaligned
 268:modules/BMI088/bmi088.c ****     }
 1029              		.loc 1 268 9 is_stmt 1 view .LVU257
 268:modules/BMI088/bmi088.c ****     }
 1030              		.loc 1 268 16 is_stmt 0 view .LVU258
 1031 00d8 0124     		movs	r4, #1
 1032 00da 9EE7     		b	.L59
 1033              	.LVL92:
 1034              	.L65:
 268:modules/BMI088/bmi088.c ****     }
 1035              		.loc 1 268 16 view .LVU259
 1036              	.LBE6:
 272:modules/BMI088/bmi088.c ****     {
 1037              		.loc 1 272 89 discriminator 1 view .LVU260
 1038 00dc 90F8D030 		ldrb	r3, [r0, #208]	@ zero_extendqisi2
 272:modules/BMI088/bmi088.c ****     {
 1039              		.loc 1 272 56 discriminator 1 view .LVU261
 1040 00e0 13F0400F 		tst	r3, #64
 1041 00e4 93D0     		beq	.L60
 274:modules/BMI088/bmi088.c ****         {
 1042              		.loc 1 274 9 is_stmt 1 view .LVU262
 274:modules/BMI088/bmi088.c ****         {
 1043              		.loc 1 274 11 is_stmt 0 view .LVU263
 1044 00e6 13F0020F 		tst	r3, #2
 1045 00ea 19D1     		bne	.L66
 1046              	.LVL93:
 1047              	.L61:
ARM GAS  C:\Users\29237\AppData\Local\Temp\ccJtdqFt.s 			page 28


 280:modules/BMI088/bmi088.c ****         {
 1048              		.loc 1 280 9 is_stmt 1 view .LVU264
 280:modules/BMI088/bmi088.c ****         {
 1049              		.loc 1 280 37 is_stmt 0 view .LVU265
 1050 00ec 95F8D030 		ldrb	r3, [r5, #208]	@ zero_extendqisi2
 280:modules/BMI088/bmi088.c ****         {
 1051              		.loc 1 280 11 view .LVU266
 1052 00f0 13F0010F 		tst	r3, #1
 1053 00f4 91D0     		beq	.L59
 282:modules/BMI088/bmi088.c ****             bmi088->update_flag.gyro = 0;
 1054              		.loc 1 282 13 is_stmt 1 view .LVU267
 1055 00f6 D5F89410 		ldr	r1, [r5, #148]	@ unaligned
 1056 00fa D5F89820 		ldr	r2, [r5, #152]	@ unaligned
 1057 00fe D5F89C30 		ldr	r3, [r5, #156]	@ unaligned
 1058 0102 3160     		str	r1, [r6]	@ unaligned
 1059 0104 7260     		str	r2, [r6, #4]	@ unaligned
 1060 0106 B360     		str	r3, [r6, #8]	@ unaligned
 283:modules/BMI088/bmi088.c ****             bmi088->update_flag.imu_ready = 0;
 1061              		.loc 1 283 13 view .LVU268
 283:modules/BMI088/bmi088.c ****             bmi088->update_flag.imu_ready = 0;
 1062              		.loc 1 283 38 is_stmt 0 view .LVU269
 1063 0108 95F8D030 		ldrb	r3, [r5, #208]	@ zero_extendqisi2
 1064 010c 23F00103 		bic	r3, r3, #1
 1065 0110 85F8D030 		strb	r3, [r5, #208]
 284:modules/BMI088/bmi088.c ****         }
 1066              		.loc 1 284 13 is_stmt 1 view .LVU270
 284:modules/BMI088/bmi088.c ****         }
 1067              		.loc 1 284 43 is_stmt 0 view .LVU271
 1068 0114 DBB2     		uxtb	r3, r3
 1069 0116 23F04003 		bic	r3, r3, #64
 1070 011a 85F8D030 		strb	r3, [r5, #208]
 287:modules/BMI088/bmi088.c ****     }
 1071              		.loc 1 287 9 is_stmt 1 view .LVU272
 287:modules/BMI088/bmi088.c ****     }
 1072              		.loc 1 287 16 is_stmt 0 view .LVU273
 1073 011e 7CE7     		b	.L59
 1074              	.LVL94:
 1075              	.L66:
 276:modules/BMI088/bmi088.c ****             bmi088->update_flag.acc = 0;
 1076              		.loc 1 276 13 is_stmt 1 view .LVU274
 1077 0120 D0F8A010 		ldr	r1, [r0, #160]	@ unaligned
 1078              	.LVL95:
 276:modules/BMI088/bmi088.c ****             bmi088->update_flag.acc = 0;
 1079              		.loc 1 276 13 is_stmt 0 view .LVU275
 1080 0124 D0F8A420 		ldr	r2, [r0, #164]	@ unaligned
 1081 0128 D0F8A830 		ldr	r3, [r0, #168]	@ unaligned
 1082 012c F160     		str	r1, [r6, #12]	@ unaligned
 1083 012e 3261     		str	r2, [r6, #16]	@ unaligned
 1084 0130 7361     		str	r3, [r6, #20]	@ unaligned
 277:modules/BMI088/bmi088.c ****             bmi088->update_flag.imu_ready = 0;
 1085              		.loc 1 277 13 is_stmt 1 view .LVU276
 277:modules/BMI088/bmi088.c ****             bmi088->update_flag.imu_ready = 0;
 1086              		.loc 1 277 37 is_stmt 0 view .LVU277
 1087 0132 90F8D030 		ldrb	r3, [r0, #208]	@ zero_extendqisi2
 1088 0136 23F00203 		bic	r3, r3, #2
 1089 013a 80F8D030 		strb	r3, [r0, #208]
 278:modules/BMI088/bmi088.c ****         }
ARM GAS  C:\Users\29237\AppData\Local\Temp\ccJtdqFt.s 			page 29


 1090              		.loc 1 278 13 is_stmt 1 view .LVU278
 278:modules/BMI088/bmi088.c ****         }
 1091              		.loc 1 278 43 is_stmt 0 view .LVU279
 1092 013e DBB2     		uxtb	r3, r3
 1093 0140 23F04003 		bic	r3, r3, #64
 1094 0144 80F8D030 		strb	r3, [r0, #208]
 1095 0148 D0E7     		b	.L61
 1096              	.L68:
 1097 014a 00BF     		.align	2
 1098              	.L67:
 1099 014c 00000000 		.word	buf.8
 1100              		.cfi_endproc
 1101              	.LFE286:
 1103              		.section	.text.BMI088CalibrateIMU,"ax",%progbits
 1104              		.align	1
 1105              		.global	BMI088CalibrateIMU
 1106              		.syntax unified
 1107              		.thumb
 1108              		.thumb_func
 1110              	BMI088CalibrateIMU:
 1111              	.LVL96:
 1112              	.LFB287:
 295:modules/BMI088/bmi088.c **** 
 296:modules/BMI088/bmi088.c **** /* pre calibrate parameter to go here */
 297:modules/BMI088/bmi088.c **** #pragma message "REMEMBER TO SET PRE CALIBRATE PARAMETER IF YOU CHOOSE NOT TO CALIBRATE"
 298:modules/BMI088/bmi088.c **** #define BMI088_PRE_CALI_ACC_X_OFFSET 0.0f
 299:modules/BMI088/bmi088.c **** #define BMI088_PRE_CALI_ACC_Y_OFFSET 0.0f
 300:modules/BMI088/bmi088.c **** #define BMI088_PRE_CALI_ACC_Z_OFFSET 0.0f
 301:modules/BMI088/bmi088.c **** #define BMI088_PRE_CALI_G_NORM 9.805f
 302:modules/BMI088/bmi088.c **** /**
 303:modules/BMI088/bmi088.c ****  * @brief BMI088 acc gyro Ê†áÂÆö
 304:modules/BMI088/bmi088.c ****  * @note Ê†áÂÆöÂêéÁöÑÊï∞ÊçÆÂ≠òÂÇ®Âú®bmi088->biasÂíågNorm‰∏≠,Áî®‰∫éÂêéÁª≠Êï∞ÊçÆÊ∂àÂô™ÂíåÂçï‰ΩçËΩ¨Êç¢
 305:modules/BMI088/bmi088.c ****  * @attention ‰∏çÁÆ°Â∑•‰ΩúÊ®°ÂºèÊòØblockingËøòÊòØIT,Ê†áÂÆöÊó∂ÈÉΩÊòØblockingÊ®°Âºè,ÊâÄ‰ª•‰∏çÁî®ÊãÖÂø
 306:modules/BMI088/bmi088.c ****  * @attention Ê†áÂÆöÁ≤æÂ∫¶ÂíåÁ≠âÂæÖÊó∂Èó¥ÊúâÂÖ≥,ÁõÆÂâç‰ΩøÁî®Á∫øÊÄßÂõûÂΩí.ÂêéÁª≠ËÄÉËôëÂºïÂÖ•ÈùûÁ∫øÊÄ
 307:modules/BMI088/bmi088.c ****  * @todo Â∞ÜÊ†áÂÆöÊ¨°Êï∞(Á≠âÂæÖÊó∂Èó¥)Âèò‰∏∫ÂèÇÊï∞‰æõËÆæÂÆö
 308:modules/BMI088/bmi088.c ****  * @section Êï¥‰ΩìÊµÅÁ®ã‰∏∫1.Á¥ØÂä†Âä†ÈÄüÂ∫¶Êï∞ÊçÆËÆ°ÁÆógNrom() 2.Á¥ØÂä†ÈôÄËû∫‰ª™Êï∞ÊçÆËÆ°ÁÆóÈõ∂È£ò
 309:modules/BMI088/bmi088.c ****  *          3. Â¶ÇÊûúÊ†áÂÆöËøáÁ®ãËøêÂä®ÂπÖÂ∫¶ËøáÂ§ß,ÈáçÊñ∞Ê†áÂÆö  4.‰øùÂ≠òÊ†áÂÆöÂèÇÊï∞
 310:modules/BMI088/bmi088.c ****  *
 311:modules/BMI088/bmi088.c ****  * @param _bmi088 ÂæÖÊ†áÂÆöÁöÑBMI088ÂÆû‰æã
 312:modules/BMI088/bmi088.c ****  */
 313:modules/BMI088/bmi088.c **** void BMI088CalibrateIMU(BMI088Instance *_bmi088)
 314:modules/BMI088/bmi088.c **** {
 1113              		.loc 1 314 1 is_stmt 1 view -0
 1114              		.cfi_startproc
 1115              		@ args = 0, pretend = 0, frame = 64
 1116              		@ frame_needed = 0, uses_anonymous_args = 0
 1117              		.loc 1 314 1 is_stmt 0 view .LVU281
 1118 0000 70B5     		push	{r4, r5, r6, lr}
 1119              	.LCFI23:
 1120              		.cfi_def_cfa_offset 16
 1121              		.cfi_offset 4, -16
 1122              		.cfi_offset 5, -12
 1123              		.cfi_offset 6, -8
 1124              		.cfi_offset 14, -4
 1125 0002 2DED048B 		vpush.64	{d8, d9}
 1126              	.LCFI24:
 1127              		.cfi_def_cfa_offset 32
ARM GAS  C:\Users\29237\AppData\Local\Temp\ccJtdqFt.s 			page 30


 1128              		.cfi_offset 80, -32
 1129              		.cfi_offset 81, -28
 1130              		.cfi_offset 82, -24
 1131              		.cfi_offset 83, -20
 1132 0006 90B0     		sub	sp, sp, #64
 1133              	.LCFI25:
 1134              		.cfi_def_cfa_offset 96
 1135 0008 0446     		mov	r4, r0
 315:modules/BMI088/bmi088.c ****     if (_bmi088->cali_mode == BMI088_CALIBRATE_ONLINE_MODE) // ÊÄßÊÑübmi088Âú®Á∫øÊ†áÂÆö,ËÄóÊó∂6s
 1136              		.loc 1 315 5 is_stmt 1 view .LVU282
 1137              		.loc 1 315 16 is_stmt 0 view .LVU283
 1138 000a 4678     		ldrb	r6, [r0, #1]	@ zero_extendqisi2
 1139              		.loc 1 315 8 view .LVU284
 1140 000c 16B3     		cbz	r6, .L110
 1141              	.LVL97:
 1142              	.L70:
 316:modules/BMI088/bmi088.c ****     {
 317:modules/BMI088/bmi088.c ****         _bmi088->acc_coef = BMI088_ACCEL_6G_SEN;         // Ê†áÂÆöÂÆåÂêéË¶Å‰πò‰ª•9.805/gNorm
 318:modules/BMI088/bmi088.c ****         _bmi088->BMI088_GYRO_SEN = BMI088_GYRO_2000_SEN; // ÂêéÁª≠Êîπ‰∏∫‰ªéinitTable‰∏≠Ëé∑Âèñ
 319:modules/BMI088/bmi088.c ****         // ‰∏ÄÊ¨°ÊÄßÂèÇÊï∞Áî®ÂÆåÂ∞±‰∏¢,‰∏çÁî®static
 320:modules/BMI088/bmi088.c ****         float startTime;                     // ÂºÄÂßãÊ†áÂÆöÊó∂Èó¥,Áî®‰∫éÁ°ÆÂÆöÊòØÂê¶Ë∂ÖÊó∂
 321:modules/BMI088/bmi088.c ****         uint16_t CaliTimes = 6000;           // Ê†áÂÆöÊ¨°Êï∞(6s)
 322:modules/BMI088/bmi088.c ****         float gyroMax[3], gyroMin[3];        // ‰øùÂ≠òÊ†áÂÆöËøáÁ®ã‰∏≠ËØªÂèñÂà∞ÁöÑÊï∞ÊçÆÊúÄÂ§ßÂÄºÂà§
 323:modules/BMI088/bmi088.c ****         float gNormTemp, gNormMax, gNormMin; // Âêå‰∏ä,ËÆ°ÁÆóÁü¢ÈáèËåÉÊï∞(Ê®°Èïø)
 324:modules/BMI088/bmi088.c ****         float gyroDiff[3], gNormDiff;        // ÊØè‰∏™ËΩ¥ÁöÑÊúÄÂ§ßËßíÈÄüÂ∫¶Ë∑®Â∫¶ÂèäÂÖ∂Ê®°Èïø
 325:modules/BMI088/bmi088.c **** 
 326:modules/BMI088/bmi088.c ****         BMI088_Data_t raw_data;
 327:modules/BMI088/bmi088.c ****         startTime = DWT_GetTimeline_s();
 328:modules/BMI088/bmi088.c ****         // Âæ™ÁéØÁªßÁª≠ÁöÑÊù°‰ª∂‰∏∫Ê†áÂÆöÁéØÂ¢É‰∏çÊª°Ë∂≥
 329:modules/BMI088/bmi088.c ****         do // Áî®do whileËá≥Â∞ëÊâßË°å‰∏ÄÊ¨°,ÁúÅÂæóÂØπ‰∏äÈù¢ÁöÑÂèÇÊï∞ËøõË°åÂàùÂßãÂåñ
 330:modules/BMI088/bmi088.c ****         {  // Ê†áÂÆöË∂ÖÊó∂,Áõ¥Êé•‰ΩøÁî®È¢ÑÊ†áÂÆöÂèÇÊï∞(Â¶ÇÊûúÊúâ)
 331:modules/BMI088/bmi088.c ****             if (DWT_GetTimeline_s() - startTime > 12.01)
 332:modules/BMI088/bmi088.c ****             { // ‰∏§Ê¨°ÈÉΩÊ≤°ÊúâÊàêÂäüÂ∞±ÂàáÊç¢Ê†áÂÆöÊ®°Âºè,‰∏¢Áªô‰∏ã‰∏Ä‰∏™ifÂ§ÑÁêÜ,‰ΩøÁî®È¢ÑÊ†áÂÆö
 333:modules/BMI088/bmi088.c ****                 _bmi088->cali_mode = BMI088_LOAD_PRE_CALI_MODE;
 334:modules/BMI088/bmi088.c ****                 break;
 335:modules/BMI088/bmi088.c ****             }
 336:modules/BMI088/bmi088.c **** 
 337:modules/BMI088/bmi088.c ****             DWT_Delay(0.0005);
 338:modules/BMI088/bmi088.c ****             _bmi088->gNorm = 0;
 339:modules/BMI088/bmi088.c ****             for (uint8_t i = 0; i < 3; i++) // ÈáçÁΩÆgNormÂíåÈõ∂È£ò
 340:modules/BMI088/bmi088.c ****                 _bmi088->gyro_offset[i] = 0;
 341:modules/BMI088/bmi088.c **** 
 342:modules/BMI088/bmi088.c ****             // @todo : ËøôÈáå‰πüÊúâËé∑Âèñbmi088Êï∞ÊçÆÁöÑÊìç‰Ωú,ÂêéÁª≠‰∏éBMI088AcquireÂêàÂπ∂.Ê≥®ÊÑèÊ
 343:modules/BMI088/bmi088.c ****             for (uint16_t i = 0; i < CaliTimes; ++i) // ÊèêÂâçËÆ°ÁÆó,‰ºòÂåñ
 344:modules/BMI088/bmi088.c ****             {
 345:modules/BMI088/bmi088.c ****                 BMI088Acquire(_bmi088, &raw_data);
 346:modules/BMI088/bmi088.c ****                 gNormTemp = NormOf3d(raw_data.acc);
 347:modules/BMI088/bmi088.c ****                 _bmi088->gNorm += gNormTemp; // ËÆ°ÁÆóËåÉÊï∞Âπ∂Á¥ØÂä†,ÊúÄÂêéÈô§‰ª•calib timesËé∑Âèñ
 348:modules/BMI088/bmi088.c ****                 for (uint8_t ii = 0; ii < 3; ii++)
 349:modules/BMI088/bmi088.c ****                     _bmi088->gyro_offset[ii] += raw_data.gyro[ii]; // Âõ†‰∏∫Ê†áÂÆöÊó∂‰º†ÊÑüÂô®ÈùôÊ≠
 350:modules/BMI088/bmi088.c **** 
 351:modules/BMI088/bmi088.c ****                 if (i == 0) // ÈÅøÂÖçÊú™ÂÆö‰πâÁöÑË°å‰∏∫(else‰∏≠)
 352:modules/BMI088/bmi088.c ****                 {
 353:modules/BMI088/bmi088.c ****                     gNormMax = gNormMin = gNormTemp; // ÂàùÂßãÂåñÊàêÂΩìÂâçÁöÑÈáçÂäõÂä†ÈÄüÂ∫¶Ê®°Èïø
 354:modules/BMI088/bmi088.c ****                     for (uint8_t j = 0; j < 3; ++j)
 355:modules/BMI088/bmi088.c ****                     {
 356:modules/BMI088/bmi088.c ****                         gyroMax[j] = raw_data.gyro[j];
ARM GAS  C:\Users\29237\AppData\Local\Temp\ccJtdqFt.s 			page 31


 357:modules/BMI088/bmi088.c ****                         gyroMin[j] = raw_data.gyro[j];
 358:modules/BMI088/bmi088.c ****                     }
 359:modules/BMI088/bmi088.c ****                 }
 360:modules/BMI088/bmi088.c ****                 else // Êõ¥Êñ∞gNormÁöÑMin MaxÂíågyroÁöÑminmax
 361:modules/BMI088/bmi088.c ****                 {
 362:modules/BMI088/bmi088.c ****                     gNormMax = gNormMax > gNormTemp ? gNormMax : gNormTemp;
 363:modules/BMI088/bmi088.c ****                     gNormMin = gNormMin < gNormTemp ? gNormMin : gNormTemp;
 364:modules/BMI088/bmi088.c ****                     for (uint8_t j = 0; j < 3; ++j)
 365:modules/BMI088/bmi088.c ****                     {
 366:modules/BMI088/bmi088.c ****                         gyroMax[j] = gyroMax[j] > _bmi088->gyro[j] ? gyroMax[j] : _bmi088->gyro[j];
 367:modules/BMI088/bmi088.c ****                         gyroMin[j] = gyroMin[j] < _bmi088->gyro[j] ? gyroMin[j] : _bmi088->gyro[j];
 368:modules/BMI088/bmi088.c ****                     }
 369:modules/BMI088/bmi088.c ****                 }
 370:modules/BMI088/bmi088.c **** 
 371:modules/BMI088/bmi088.c ****                 gNormDiff = gNormMax - gNormMin; // ÊúÄÂ§ßÂÄºÂíåÊúÄÂ∞èÂÄºÁöÑÂ∑Æ
 372:modules/BMI088/bmi088.c ****                 for (uint8_t j = 0; j < 3; ++j)
 373:modules/BMI088/bmi088.c ****                     gyroDiff[j] = gyroMax[j] - gyroMin[j]; // ÂàÜÂà´ËÆ°ÁÆó‰∏âËΩ¥
 374:modules/BMI088/bmi088.c ****                 if (gNormDiff > 0.5f ||
 375:modules/BMI088/bmi088.c ****                     gyroDiff[0] > 0.15f ||
 376:modules/BMI088/bmi088.c ****                     gyroDiff[1] > 0.15f ||
 377:modules/BMI088/bmi088.c ****                     gyroDiff[2] > 0.15f)
 378:modules/BMI088/bmi088.c ****                     break;         // Ë∂ÖÂá∫ËåÉÂõ¥‰∫Ü,ÈáçÂºÄ! remakeÂà∞whileÂæ™ÁéØ,Â§ñÈù¢ËøòÊúâ‰∏ÄÂ
 379:modules/BMI088/bmi088.c ****                 DWT_Delay(0.0005); // ‰ºëÊÅØ‰∏Ä‰ºöÂÜçÂºÄÂßã‰∏ã‰∏ÄËΩÆÊï∞ÊçÆËé∑Âèñ,IMUÂáÜÂ§áÊï∞ÊçÆÈúÄ
 380:modules/BMI088/bmi088.c ****             }
 381:modules/BMI088/bmi088.c ****             _bmi088->gNorm /= (float)CaliTimes; // Âä†ÈÄüÂ∫¶ËåÉÊï∞ÈáçÂäõ
 382:modules/BMI088/bmi088.c ****             for (uint8_t i = 0; i < 3; ++i)
 383:modules/BMI088/bmi088.c ****                 _bmi088->gyro_offset[i] /= (float)CaliTimes; // ‰∏âËΩ¥Èõ∂È£ò
 384:modules/BMI088/bmi088.c ****             // ËøôÈáåÁõ¥Êé•Â≠òÂà∞temperature,ÂèØ‰ª•Âè¶Â§ñÂ¢ûÂä†BMI088InstanceÁöÑÊàêÂëòÂèòÈáèTempWhe
 385:modules/BMI088/bmi088.c ****             _bmi088->temperature = raw_data.temperature * BMI088_TEMP_FACTOR + BMI088_TEMP_OFFSET; 
 386:modules/BMI088/bmi088.c ****             // caliTryOutCount++; ‰øùÂ≠òÂ∑≤ÁªèÂ∞ùËØïÁöÑÊ†áÂÆöÊ¨°Êï∞?Áî±‰Ω†.
 387:modules/BMI088/bmi088.c ****         } while (gNormDiff > 0.5f ||
 388:modules/BMI088/bmi088.c ****                  fabsf(_bmi088->gNorm - 9.8f) > 0.5f ||
 389:modules/BMI088/bmi088.c ****                  gyroDiff[0] > 0.15f ||
 390:modules/BMI088/bmi088.c ****                  gyroDiff[1] > 0.15f ||
 391:modules/BMI088/bmi088.c ****                  gyroDiff[2] > 0.15f ||
 392:modules/BMI088/bmi088.c ****                  fabsf(_bmi088->gyro_offset[0]) > 0.01f ||
 393:modules/BMI088/bmi088.c ****                  fabsf(_bmi088->gyro_offset[1]) > 0.01f ||
 394:modules/BMI088/bmi088.c ****                  fabsf(_bmi088->gyro_offset[2]) > 0.01f); // Êª°Ë∂≥Êù°‰ª∂ËØ¥ÊòéÊ†áÂÆöÁéØÂ¢É‰∏çÂ•Ω
 395:modules/BMI088/bmi088.c ****     }
 396:modules/BMI088/bmi088.c **** 
 397:modules/BMI088/bmi088.c ****     // Á¶ªÁ∫øÊ†áÂÆö
 398:modules/BMI088/bmi088.c ****     if (_bmi088->cali_mode == BMI088_LOAD_PRE_CALI_MODE) // Â¶ÇÊûúÊ†áÂÆöÂ§±Ë¥•‰πü‰ºöËøõÊù•,Áõ¥Êé•‰Ω
 1143              		.loc 1 398 5 is_stmt 1 view .LVU285
 1144              		.loc 1 398 16 is_stmt 0 view .LVU286
 1145 000e 6378     		ldrb	r3, [r4, #1]	@ zero_extendqisi2
 1146              		.loc 1 398 8 view .LVU287
 1147 0010 012B     		cmp	r3, #1
 1148 0012 00F07281 		beq	.L111
 1149              	.L100:
 399:modules/BMI088/bmi088.c ****     {
 400:modules/BMI088/bmi088.c ****         _bmi088->gyro_offset[0] = BMI088_PRE_CALI_ACC_X_OFFSET;
 401:modules/BMI088/bmi088.c ****         _bmi088->gyro_offset[1] = BMI088_PRE_CALI_ACC_Y_OFFSET;
 402:modules/BMI088/bmi088.c ****         _bmi088->gyro_offset[2] = BMI088_PRE_CALI_ACC_Z_OFFSET;
 403:modules/BMI088/bmi088.c ****         _bmi088->gNorm = BMI088_PRE_CALI_G_NORM;
 404:modules/BMI088/bmi088.c ****     }
 405:modules/BMI088/bmi088.c ****     _bmi088->acc_coef *= 9.805 / _bmi088->gNorm;
 1150              		.loc 1 405 5 is_stmt 1 view .LVU288
ARM GAS  C:\Users\29237\AppData\Local\Temp\ccJtdqFt.s 			page 32


 1151              		.loc 1 405 12 is_stmt 0 view .LVU289
 1152 0016 D4F8C000 		ldr	r0, [r4, #192]	@ float
 1153 001a FFF7FEFF 		bl	__aeabi_f2d
 1154              	.LVL98:
 1155 001e 0546     		mov	r5, r0
 1156 0020 0E46     		mov	r6, r1
 1157              		.loc 1 405 41 view .LVU290
 1158 0022 D4F8BC00 		ldr	r0, [r4, #188]	@ float
 1159 0026 FFF7FEFF 		bl	__aeabi_f2d
 1160              	.LVL99:
 1161 002a 0246     		mov	r2, r0
 1162 002c 0B46     		mov	r3, r1
 1163              		.loc 1 405 32 view .LVU291
 1164 002e C2A1     		adr	r1, .L115+40
 1165 0030 D1E90001 		ldrd	r0, [r1]
 1166 0034 FFF7FEFF 		bl	__aeabi_ddiv
 1167              	.LVL100:
 1168 0038 0246     		mov	r2, r0
 1169 003a 0B46     		mov	r3, r1
 1170              		.loc 1 405 23 view .LVU292
 1171 003c 2846     		mov	r0, r5
 1172 003e 3146     		mov	r1, r6
 1173 0040 FFF7FEFF 		bl	__aeabi_dmul
 1174              	.LVL101:
 1175 0044 FFF7FEFF 		bl	__aeabi_d2f
 1176              	.LVL102:
 1177 0048 C4F8C000 		str	r0, [r4, #192]	@ float
 406:modules/BMI088/bmi088.c **** }
 1178              		.loc 1 406 1 view .LVU293
 1179 004c 10B0     		add	sp, sp, #64
 1180              	.LCFI26:
 1181              		.cfi_remember_state
 1182              		.cfi_def_cfa_offset 32
 1183              		@ sp needed
 1184 004e BDEC048B 		vldm	sp!, {d8-d9}
 1185              	.LCFI27:
 1186              		.cfi_restore 82
 1187              		.cfi_restore 83
 1188              		.cfi_restore 80
 1189              		.cfi_restore 81
 1190              		.cfi_def_cfa_offset 16
 1191 0052 70BD     		pop	{r4, r5, r6, pc}
 1192              	.LVL103:
 1193              	.L110:
 1194              	.LCFI28:
 1195              		.cfi_restore_state
 1196              	.LBB9:
 317:modules/BMI088/bmi088.c ****         _bmi088->BMI088_GYRO_SEN = BMI088_GYRO_2000_SEN; // ÂêéÁª≠Êîπ‰∏∫‰ªéinitTable‰∏≠Ëé∑Âèñ
 1197              		.loc 1 317 9 is_stmt 1 view .LVU294
 317:modules/BMI088/bmi088.c ****         _bmi088->BMI088_GYRO_SEN = BMI088_GYRO_2000_SEN; // ÂêéÁª≠Êîπ‰∏∫‰ªéinitTable‰∏≠Ëé∑Âèñ
 1198              		.loc 1 317 27 is_stmt 0 view .LVU295
 1199 0054 B04B     		ldr	r3, .L115+8
 1200 0056 C0F8C030 		str	r3, [r0, #192]	@ float
 318:modules/BMI088/bmi088.c ****         // ‰∏ÄÊ¨°ÊÄßÂèÇÊï∞Áî®ÂÆåÂ∞±‰∏¢,‰∏çÁî®static
 1201              		.loc 1 318 9 is_stmt 1 view .LVU296
 318:modules/BMI088/bmi088.c ****         // ‰∏ÄÊ¨°ÊÄßÂèÇÊï∞Áî®ÂÆåÂ∞±‰∏¢,‰∏çÁî®static
 1202              		.loc 1 318 34 is_stmt 0 view .LVU297
ARM GAS  C:\Users\29237\AppData\Local\Temp\ccJtdqFt.s 			page 33


 1203 005a B04B     		ldr	r3, .L115+12
 1204 005c C0F8C830 		str	r3, [r0, #200]	@ float
 320:modules/BMI088/bmi088.c ****         uint16_t CaliTimes = 6000;           // Ê†áÂÆöÊ¨°Êï∞(6s)
 1205              		.loc 1 320 9 is_stmt 1 view .LVU298
 321:modules/BMI088/bmi088.c ****         float gyroMax[3], gyroMin[3];        // ‰øùÂ≠òÊ†áÂÆöËøáÁ®ã‰∏≠ËØªÂèñÂà∞ÁöÑÊï∞ÊçÆÊúÄÂ§ßÂÄºÂà§
 1206              		.loc 1 321 9 view .LVU299
 1207              	.LVL104:
 322:modules/BMI088/bmi088.c ****         float gNormTemp, gNormMax, gNormMin; // Âêå‰∏ä,ËÆ°ÁÆóÁü¢ÈáèËåÉÊï∞(Ê®°Èïø)
 1208              		.loc 1 322 9 view .LVU300
 323:modules/BMI088/bmi088.c ****         float gyroDiff[3], gNormDiff;        // ÊØè‰∏™ËΩ¥ÁöÑÊúÄÂ§ßËßíÈÄüÂ∫¶Ë∑®Â∫¶ÂèäÂÖ∂Ê®°Èïø
 1209              		.loc 1 323 9 view .LVU301
 324:modules/BMI088/bmi088.c **** 
 1210              		.loc 1 324 9 view .LVU302
 326:modules/BMI088/bmi088.c ****         startTime = DWT_GetTimeline_s();
 1211              		.loc 1 326 9 view .LVU303
 327:modules/BMI088/bmi088.c ****         // Âæ™ÁéØÁªßÁª≠ÁöÑÊù°‰ª∂‰∏∫Ê†áÂÆöÁéØÂ¢É‰∏çÊª°Ë∂≥
 1212              		.loc 1 327 9 view .LVU304
 327:modules/BMI088/bmi088.c ****         // Âæ™ÁéØÁªßÁª≠ÁöÑÊù°‰ª∂‰∏∫Ê†áÂÆöÁéØÂ¢É‰∏çÊª°Ë∂≥
 1213              		.loc 1 327 21 is_stmt 0 view .LVU305
 1214 0060 FFF7FEFF 		bl	DWT_GetTimeline_s
 1215              	.LVL105:
 327:modules/BMI088/bmi088.c ****         // Âæ™ÁéØÁªßÁª≠ÁöÑÊù°‰ª∂‰∏∫Ê†áÂÆöÁéØÂ¢É‰∏çÊª°Ë∂≥
 1216              		.loc 1 327 21 view .LVU306
 1217 0064 F0EE408A 		vmov.f32	s17, s0
 1218              	.LVL106:
 1219              	.L99:
 329:modules/BMI088/bmi088.c ****         {  // Ê†áÂÆöË∂ÖÊó∂,Áõ¥Êé•‰ΩøÁî®È¢ÑÊ†áÂÆöÂèÇÊï∞(Â¶ÇÊûúÊúâ)
 1220              		.loc 1 329 9 is_stmt 1 view .LVU307
 331:modules/BMI088/bmi088.c ****             { // ‰∏§Ê¨°ÈÉΩÊ≤°ÊúâÊàêÂäüÂ∞±ÂàáÊç¢Ê†áÂÆöÊ®°Âºè,‰∏¢Áªô‰∏ã‰∏Ä‰∏™ifÂ§ÑÁêÜ,‰ΩøÁî®È¢ÑÊ†áÂÆö
 1221              		.loc 1 331 13 view .LVU308
 331:modules/BMI088/bmi088.c ****             { // ‰∏§Ê¨°ÈÉΩÊ≤°ÊúâÊàêÂäüÂ∞±ÂàáÊç¢Ê†áÂÆöÊ®°Âºè,‰∏¢Áªô‰∏ã‰∏Ä‰∏™ifÂ§ÑÁêÜ,‰ΩøÁî®È¢ÑÊ†áÂÆö
 1222              		.loc 1 331 17 is_stmt 0 view .LVU309
 1223 0068 FFF7FEFF 		bl	DWT_GetTimeline_s
 1224              	.LVL107:
 331:modules/BMI088/bmi088.c ****             { // ‰∏§Ê¨°ÈÉΩÊ≤°ÊúâÊàêÂäüÂ∞±ÂàáÊç¢Ê†áÂÆöÊ®°Âºè,‰∏¢Áªô‰∏ã‰∏Ä‰∏™ifÂ§ÑÁêÜ,‰ΩøÁî®È¢ÑÊ†áÂÆö
 1225              		.loc 1 331 37 discriminator 1 view .LVU310
 1226 006c 70EE687A 		vsub.f32	s15, s0, s17
 1227 0070 17EE900A 		vmov	r0, s15
 1228 0074 FFF7FEFF 		bl	__aeabi_f2d
 1229              	.LVL108:
 331:modules/BMI088/bmi088.c ****             { // ‰∏§Ê¨°ÈÉΩÊ≤°ÊúâÊàêÂäüÂ∞±ÂàáÊç¢Ê†áÂÆöÊ®°Âºè,‰∏¢Áªô‰∏ã‰∏Ä‰∏™ifÂ§ÑÁêÜ,‰ΩøÁî®È¢ÑÊ†áÂÆö
 1230              		.loc 1 331 16 discriminator 1 view .LVU311
 1231 0078 A5A3     		adr	r3, .L115
 1232 007a D3E90023 		ldrd	r2, [r3]
 1233 007e FFF7FEFF 		bl	__aeabi_dcmpgt
 1234              	.LVL109:
 1235 0082 40B9     		cbnz	r0, .L112
 337:modules/BMI088/bmi088.c ****             _bmi088->gNorm = 0;
 1236              		.loc 1 337 13 is_stmt 1 view .LVU312
 1237 0084 9FEDA60A 		vldr.32	s0, .L115+16
 1238 0088 FFF7FEFF 		bl	DWT_Delay
 1239              	.LVL110:
 338:modules/BMI088/bmi088.c ****             for (uint8_t i = 0; i < 3; i++) // ÈáçÁΩÆgNormÂíåÈõ∂È£ò
 1240              		.loc 1 338 13 view .LVU313
 338:modules/BMI088/bmi088.c ****             for (uint8_t i = 0; i < 3; i++) // ÈáçÁΩÆgNormÂíåÈõ∂È£ò
 1241              		.loc 1 338 28 is_stmt 0 view .LVU314
 1242 008c 0023     		movs	r3, #0
ARM GAS  C:\Users\29237\AppData\Local\Temp\ccJtdqFt.s 			page 34


 1243 008e C4F8BC30 		str	r3, [r4, #188]	@ float
 339:modules/BMI088/bmi088.c ****                 _bmi088->gyro_offset[i] = 0;
 1244              		.loc 1 339 13 is_stmt 1 view .LVU315
 1245              	.LBB10:
 339:modules/BMI088/bmi088.c ****                 _bmi088->gyro_offset[i] = 0;
 1246              		.loc 1 339 18 view .LVU316
 1247              	.LVL111:
 339:modules/BMI088/bmi088.c ****                 _bmi088->gyro_offset[i] = 0;
 1248              		.loc 1 339 26 is_stmt 0 view .LVU317
 1249 0092 3346     		mov	r3, r6
 339:modules/BMI088/bmi088.c ****                 _bmi088->gyro_offset[i] = 0;
 1250              		.loc 1 339 13 view .LVU318
 1251 0094 0AE0     		b	.L74
 1252              	.LVL112:
 1253              	.L112:
 339:modules/BMI088/bmi088.c ****                 _bmi088->gyro_offset[i] = 0;
 1254              		.loc 1 339 13 view .LVU319
 1255              	.LBE10:
 333:modules/BMI088/bmi088.c ****                 break;
 1256              		.loc 1 333 17 is_stmt 1 view .LVU320
 333:modules/BMI088/bmi088.c ****                 break;
 1257              		.loc 1 333 36 is_stmt 0 view .LVU321
 1258 0096 0123     		movs	r3, #1
 1259 0098 6370     		strb	r3, [r4, #1]
 334:modules/BMI088/bmi088.c ****             }
 1260              		.loc 1 334 17 is_stmt 1 view .LVU322
 1261 009a B8E7     		b	.L70
 1262              	.LVL113:
 1263              	.L75:
 1264              	.LBB11:
 340:modules/BMI088/bmi088.c **** 
 1265              		.loc 1 340 17 view .LVU323
 340:modules/BMI088/bmi088.c **** 
 1266              		.loc 1 340 41 is_stmt 0 view .LVU324
 1267 009c 03F12C02 		add	r2, r3, #44
 1268 00a0 04EB8202 		add	r2, r4, r2, lsl #2
 1269 00a4 0021     		movs	r1, #0
 1270 00a6 1160     		str	r1, [r2]	@ float
 339:modules/BMI088/bmi088.c ****                 _bmi088->gyro_offset[i] = 0;
 1271              		.loc 1 339 41 is_stmt 1 discriminator 3 view .LVU325
 1272 00a8 0133     		adds	r3, r3, #1
 1273              	.LVL114:
 339:modules/BMI088/bmi088.c ****                 _bmi088->gyro_offset[i] = 0;
 1274              		.loc 1 339 41 is_stmt 0 discriminator 3 view .LVU326
 1275 00aa DBB2     		uxtb	r3, r3
 1276              	.LVL115:
 1277              	.L74:
 339:modules/BMI088/bmi088.c ****                 _bmi088->gyro_offset[i] = 0;
 1278              		.loc 1 339 35 is_stmt 1 discriminator 1 view .LVU327
 1279 00ac 022B     		cmp	r3, #2
 1280 00ae F5D9     		bls	.L75
 1281              	.LBE11:
 1282              	.LBB12:
 343:modules/BMI088/bmi088.c ****             {
 1283              		.loc 1 343 27 is_stmt 0 view .LVU328
 1284 00b0 0025     		movs	r5, #0
 1285 00b2 98E0     		b	.L76
ARM GAS  C:\Users\29237\AppData\Local\Temp\ccJtdqFt.s 			page 35


 1286              	.LVL116:
 1287              	.L78:
 1288              	.LBB13:
 349:modules/BMI088/bmi088.c **** 
 1289              		.loc 1 349 21 is_stmt 1 view .LVU329
 349:modules/BMI088/bmi088.c **** 
 1290              		.loc 1 349 41 is_stmt 0 view .LVU330
 1291 00b4 03F12C02 		add	r2, r3, #44
 1292 00b8 04EB8202 		add	r2, r4, r2, lsl #2
 1293 00bc D2ED007A 		vldr.32	s15, [r2]
 349:modules/BMI088/bmi088.c **** 
 1294              		.loc 1 349 62 view .LVU331
 1295 00c0 10A9     		add	r1, sp, #64
 1296 00c2 01EB8301 		add	r1, r1, r3, lsl #2
 1297 00c6 11ED077A 		vldr.32	s14, [r1, #-28]
 349:modules/BMI088/bmi088.c **** 
 1298              		.loc 1 349 46 view .LVU332
 1299 00ca 77EE877A 		vadd.f32	s15, s15, s14
 1300 00ce C2ED007A 		vstr.32	s15, [r2]
 348:modules/BMI088/bmi088.c ****                     _bmi088->gyro_offset[ii] += raw_data.gyro[ii]; // Âõ†‰∏∫Ê†áÂÆöÊó∂‰º†ÊÑüÂô®ÈùôÊ≠
 1301              		.loc 1 348 48 is_stmt 1 discriminator 3 view .LVU333
 1302 00d2 0133     		adds	r3, r3, #1
 1303              	.LVL117:
 348:modules/BMI088/bmi088.c ****                     _bmi088->gyro_offset[ii] += raw_data.gyro[ii]; // Âõ†‰∏∫Ê†áÂÆöÊó∂‰º†ÊÑüÂô®ÈùôÊ≠
 1304              		.loc 1 348 48 is_stmt 0 discriminator 3 view .LVU334
 1305 00d4 DBB2     		uxtb	r3, r3
 1306              	.LVL118:
 1307              	.L77:
 348:modules/BMI088/bmi088.c ****                     _bmi088->gyro_offset[ii] += raw_data.gyro[ii]; // Âõ†‰∏∫Ê†áÂÆöÊó∂‰º†ÊÑüÂô®ÈùôÊ≠
 1308              		.loc 1 348 41 is_stmt 1 discriminator 1 view .LVU335
 1309 00d6 022B     		cmp	r3, #2
 1310 00d8 ECD9     		bls	.L78
 1311              	.LBE13:
 351:modules/BMI088/bmi088.c ****                 {
 1312              		.loc 1 351 17 view .LVU336
 351:modules/BMI088/bmi088.c ****                 {
 1313              		.loc 1 351 20 is_stmt 0 view .LVU337
 1314 00da 25B3     		cbz	r5, .L113
 362:modules/BMI088/bmi088.c ****                     gNormMin = gNormMin < gNormTemp ? gNormMin : gNormTemp;
 1315              		.loc 1 362 21 is_stmt 1 view .LVU338
 362:modules/BMI088/bmi088.c ****                     gNormMin = gNormMin < gNormTemp ? gNormMin : gNormTemp;
 1316              		.loc 1 362 64 is_stmt 0 view .LVU339
 1317 00dc B4EEC08A 		vcmpe.f32	s16, s0
 1318 00e0 F1EE10FA 		vmrs	APSR_nzcv, FPSCR
 1319 00e4 01DC     		bgt	.L83
 362:modules/BMI088/bmi088.c ****                     gNormMin = gNormMin < gNormTemp ? gNormMin : gNormTemp;
 1320              		.loc 1 362 64 discriminator 2 view .LVU340
 1321 00e6 B0EE408A 		vmov.f32	s16, s0
 1322              	.LVL119:
 1323              	.L83:
 363:modules/BMI088/bmi088.c ****                     for (uint8_t j = 0; j < 3; ++j)
 1324              		.loc 1 363 21 is_stmt 1 view .LVU341
 363:modules/BMI088/bmi088.c ****                     for (uint8_t j = 0; j < 3; ++j)
 1325              		.loc 1 363 64 is_stmt 0 view .LVU342
 1326 00ea B4EEC09A 		vcmpe.f32	s18, s0
 1327 00ee F1EE10FA 		vmrs	APSR_nzcv, FPSCR
 1328 00f2 01D4     		bmi	.L85
ARM GAS  C:\Users\29237\AppData\Local\Temp\ccJtdqFt.s 			page 36


 363:modules/BMI088/bmi088.c ****                     for (uint8_t j = 0; j < 3; ++j)
 1329              		.loc 1 363 64 discriminator 2 view .LVU343
 1330 00f4 B0EE409A 		vmov.f32	s18, s0
 1331              	.LVL120:
 1332              	.L85:
 364:modules/BMI088/bmi088.c ****                     {
 1333              		.loc 1 364 21 is_stmt 1 view .LVU344
 1334              	.LBB14:
 364:modules/BMI088/bmi088.c ****                     {
 1335              		.loc 1 364 26 view .LVU345
 364:modules/BMI088/bmi088.c ****                     {
 1336              		.loc 1 364 34 is_stmt 0 view .LVU346
 1337 00f8 3346     		mov	r3, r6
 1338              	.LVL121:
 364:modules/BMI088/bmi088.c ****                     {
 1339              		.loc 1 364 21 view .LVU347
 1340 00fa 1DE0     		b	.L87
 1341              	.LVL122:
 1342              	.L81:
 364:modules/BMI088/bmi088.c ****                     {
 1343              		.loc 1 364 21 view .LVU348
 1344              	.LBE14:
 1345              	.LBB15:
 356:modules/BMI088/bmi088.c ****                         gyroMin[j] = raw_data.gyro[j];
 1346              		.loc 1 356 25 is_stmt 1 view .LVU349
 356:modules/BMI088/bmi088.c ****                         gyroMin[j] = raw_data.gyro[j];
 1347              		.loc 1 356 51 is_stmt 0 view .LVU350
 1348 00fc 10AA     		add	r2, sp, #64
 1349 00fe 02EB8302 		add	r2, r2, r3, lsl #2
 1350 0102 52F81C1C 		ldr	r1, [r2, #-28]	@ float
 356:modules/BMI088/bmi088.c ****                         gyroMin[j] = raw_data.gyro[j];
 1351              		.loc 1 356 36 view .LVU351
 1352 0106 42F8401C 		str	r1, [r2, #-64]	@ float
 357:modules/BMI088/bmi088.c ****                     }
 1353              		.loc 1 357 25 is_stmt 1 view .LVU352
 357:modules/BMI088/bmi088.c ****                     }
 1354              		.loc 1 357 36 is_stmt 0 view .LVU353
 1355 010a 42F8341C 		str	r1, [r2, #-52]	@ float
 354:modules/BMI088/bmi088.c ****                     {
 1356              		.loc 1 354 48 is_stmt 1 discriminator 3 view .LVU354
 1357 010e 0133     		adds	r3, r3, #1
 1358              	.LVL123:
 354:modules/BMI088/bmi088.c ****                     {
 1359              		.loc 1 354 48 is_stmt 0 discriminator 3 view .LVU355
 1360 0110 DBB2     		uxtb	r3, r3
 1361              	.LVL124:
 1362              	.L79:
 354:modules/BMI088/bmi088.c ****                     {
 1363              		.loc 1 354 43 is_stmt 1 discriminator 1 view .LVU356
 1364 0112 022B     		cmp	r3, #2
 1365 0114 F2D9     		bls	.L81
 1366              	.LBE15:
 353:modules/BMI088/bmi088.c ****                     for (uint8_t j = 0; j < 3; ++j)
 1367              		.loc 1 353 41 is_stmt 0 view .LVU357
 1368 0116 B0EE409A 		vmov.f32	s18, s0
 353:modules/BMI088/bmi088.c ****                     for (uint8_t j = 0; j < 3; ++j)
 1369              		.loc 1 353 30 view .LVU358
ARM GAS  C:\Users\29237\AppData\Local\Temp\ccJtdqFt.s 			page 37


 1370 011a B0EE408A 		vmov.f32	s16, s0
 1371              	.LVL125:
 1372              	.L82:
 371:modules/BMI088/bmi088.c ****                 for (uint8_t j = 0; j < 3; ++j)
 1373              		.loc 1 371 17 is_stmt 1 view .LVU359
 371:modules/BMI088/bmi088.c ****                 for (uint8_t j = 0; j < 3; ++j)
 1374              		.loc 1 371 27 is_stmt 0 view .LVU360
 1375 011e 78EE499A 		vsub.f32	s19, s16, s18
 1376              	.LVL126:
 372:modules/BMI088/bmi088.c ****                     gyroDiff[j] = gyroMax[j] - gyroMin[j]; // ÂàÜÂà´ËÆ°ÁÆó‰∏âËΩ¥
 1377              		.loc 1 372 17 is_stmt 1 view .LVU361
 1378              	.LBB16:
 372:modules/BMI088/bmi088.c ****                     gyroDiff[j] = gyroMax[j] - gyroMin[j]; // ÂàÜÂà´ËÆ°ÁÆó‰∏âËΩ¥
 1379              		.loc 1 372 22 view .LVU362
 372:modules/BMI088/bmi088.c ****                     gyroDiff[j] = gyroMax[j] - gyroMin[j]; // ÂàÜÂà´ËÆ°ÁÆó‰∏âËΩ¥
 1380              		.loc 1 372 30 is_stmt 0 view .LVU363
 1381 0122 3346     		mov	r3, r6
 372:modules/BMI088/bmi088.c ****                     gyroDiff[j] = gyroMax[j] - gyroMin[j]; // ÂàÜÂà´ËÆ°ÁÆó‰∏âËΩ¥
 1382              		.loc 1 372 17 view .LVU364
 1383 0124 39E0     		b	.L93
 1384              	.LVL127:
 1385              	.L113:
 372:modules/BMI088/bmi088.c ****                     gyroDiff[j] = gyroMax[j] - gyroMin[j]; // ÂàÜÂà´ËÆ°ÁÆó‰∏âËΩ¥
 1386              		.loc 1 372 17 view .LVU365
 1387              	.LBE16:
 1388              	.LBB17:
 354:modules/BMI088/bmi088.c ****                     {
 1389              		.loc 1 354 34 view .LVU366
 1390 0126 3346     		mov	r3, r6
 1391              	.LVL128:
 354:modules/BMI088/bmi088.c ****                     {
 1392              		.loc 1 354 34 view .LVU367
 1393 0128 F3E7     		b	.L79
 1394              	.LVL129:
 1395              	.L90:
 354:modules/BMI088/bmi088.c ****                     {
 1396              		.loc 1 354 34 view .LVU368
 1397              	.LBE17:
 1398              	.LBB18:
 367:modules/BMI088/bmi088.c ****                     }
 1399              		.loc 1 367 36 discriminator 4 view .LVU369
 1400 012a 10A9     		add	r1, sp, #64
 1401 012c 01EB8202 		add	r2, r1, r2, lsl #2
 1402 0130 42ED0D7A 		vstr.32	s15, [r2, #-52]
 364:modules/BMI088/bmi088.c ****                     {
 1403              		.loc 1 364 48 is_stmt 1 discriminator 2 view .LVU370
 1404 0134 0133     		adds	r3, r3, #1
 1405              	.LVL130:
 364:modules/BMI088/bmi088.c ****                     {
 1406              		.loc 1 364 48 is_stmt 0 discriminator 2 view .LVU371
 1407 0136 DBB2     		uxtb	r3, r3
 1408              	.LVL131:
 1409              	.L87:
 364:modules/BMI088/bmi088.c ****                     {
 1410              		.loc 1 364 43 is_stmt 1 discriminator 1 view .LVU372
 1411 0138 022B     		cmp	r3, #2
 1412 013a F0D8     		bhi	.L82
ARM GAS  C:\Users\29237\AppData\Local\Temp\ccJtdqFt.s 			page 38


 366:modules/BMI088/bmi088.c ****                         gyroMin[j] = gyroMin[j] < _bmi088->gyro[j] ? gyroMin[j] : _bmi088->gyro[j];
 1413              		.loc 1 366 25 view .LVU373
 366:modules/BMI088/bmi088.c ****                         gyroMin[j] = gyroMin[j] < _bmi088->gyro[j] ? gyroMin[j] : _bmi088->gyro[j];
 1414              		.loc 1 366 45 is_stmt 0 view .LVU374
 1415 013c 1A46     		mov	r2, r3
 1416 013e 10A9     		add	r1, sp, #64
 1417 0140 01EB8301 		add	r1, r1, r3, lsl #2
 1418 0144 11ED107A 		vldr.32	s14, [r1, #-64]
 366:modules/BMI088/bmi088.c ****                         gyroMin[j] = gyroMin[j] < _bmi088->gyro[j] ? gyroMin[j] : _bmi088->gyro[j];
 1419              		.loc 1 366 64 view .LVU375
 1420 0148 03F12401 		add	r1, r3, #36
 1421 014c 04EB8101 		add	r1, r4, r1, lsl #2
 1422 0150 D1ED017A 		vldr.32	s15, [r1, #4]
 366:modules/BMI088/bmi088.c ****                         gyroMin[j] = gyroMin[j] < _bmi088->gyro[j] ? gyroMin[j] : _bmi088->gyro[j];
 1423              		.loc 1 366 81 view .LVU376
 1424 0154 B4EEE77A 		vcmpe.f32	s14, s15
 1425 0158 F1EE10FA 		vmrs	APSR_nzcv, FPSCR
 1426 015c 01DC     		bgt	.L88
 366:modules/BMI088/bmi088.c ****                         gyroMin[j] = gyroMin[j] < _bmi088->gyro[j] ? gyroMin[j] : _bmi088->gyro[j];
 1427              		.loc 1 366 81 discriminator 2 view .LVU377
 1428 015e B0EE677A 		vmov.f32	s14, s15
 1429              	.L88:
 366:modules/BMI088/bmi088.c ****                         gyroMin[j] = gyroMin[j] < _bmi088->gyro[j] ? gyroMin[j] : _bmi088->gyro[j];
 1430              		.loc 1 366 36 discriminator 4 view .LVU378
 1431 0162 10A9     		add	r1, sp, #64
 1432 0164 01EB8201 		add	r1, r1, r2, lsl #2
 1433 0168 01ED107A 		vstr.32	s14, [r1, #-64]
 367:modules/BMI088/bmi088.c ****                     }
 1434              		.loc 1 367 25 is_stmt 1 view .LVU379
 367:modules/BMI088/bmi088.c ****                     }
 1435              		.loc 1 367 45 is_stmt 0 view .LVU380
 1436 016c 11ED0D7A 		vldr.32	s14, [r1, #-52]
 367:modules/BMI088/bmi088.c ****                     }
 1437              		.loc 1 367 81 view .LVU381
 1438 0170 F4EEC77A 		vcmpe.f32	s15, s14
 1439 0174 F1EE10FA 		vmrs	APSR_nzcv, FPSCR
 1440 0178 D7DD     		ble	.L90
 367:modules/BMI088/bmi088.c ****                     }
 1441              		.loc 1 367 81 discriminator 1 view .LVU382
 1442 017a F0EE477A 		vmov.f32	s15, s14
 1443 017e D4E7     		b	.L90
 1444              	.LVL132:
 1445              	.L94:
 367:modules/BMI088/bmi088.c ****                     }
 1446              		.loc 1 367 81 discriminator 1 view .LVU383
 1447              	.LBE18:
 1448              	.LBB19:
 373:modules/BMI088/bmi088.c ****                 if (gNormDiff > 0.5f ||
 1449              		.loc 1 373 21 is_stmt 1 view .LVU384
 373:modules/BMI088/bmi088.c ****                 if (gNormDiff > 0.5f ||
 1450              		.loc 1 373 42 is_stmt 0 view .LVU385
 1451 0180 10AA     		add	r2, sp, #64
 1452 0182 02EB8302 		add	r2, r2, r3, lsl #2
 1453 0186 52ED107A 		vldr.32	s15, [r2, #-64]
 373:modules/BMI088/bmi088.c ****                 if (gNormDiff > 0.5f ||
 1454              		.loc 1 373 55 view .LVU386
 1455 018a 12ED0D7A 		vldr.32	s14, [r2, #-52]
ARM GAS  C:\Users\29237\AppData\Local\Temp\ccJtdqFt.s 			page 39


 373:modules/BMI088/bmi088.c ****                 if (gNormDiff > 0.5f ||
 1456              		.loc 1 373 46 view .LVU387
 1457 018e 77EEC77A 		vsub.f32	s15, s15, s14
 373:modules/BMI088/bmi088.c ****                 if (gNormDiff > 0.5f ||
 1458              		.loc 1 373 33 view .LVU388
 1459 0192 42ED0A7A 		vstr.32	s15, [r2, #-40]
 372:modules/BMI088/bmi088.c ****                     gyroDiff[j] = gyroMax[j] - gyroMin[j]; // ÂàÜÂà´ËÆ°ÁÆó‰∏âËΩ¥
 1460              		.loc 1 372 44 is_stmt 1 discriminator 3 view .LVU389
 1461 0196 0133     		adds	r3, r3, #1
 1462              	.LVL133:
 372:modules/BMI088/bmi088.c ****                     gyroDiff[j] = gyroMax[j] - gyroMin[j]; // ÂàÜÂà´ËÆ°ÁÆó‰∏âËΩ¥
 1463              		.loc 1 372 44 is_stmt 0 discriminator 3 view .LVU390
 1464 0198 DBB2     		uxtb	r3, r3
 1465              	.LVL134:
 1466              	.L93:
 372:modules/BMI088/bmi088.c ****                     gyroDiff[j] = gyroMax[j] - gyroMin[j]; // ÂàÜÂà´ËÆ°ÁÆó‰∏âËΩ¥
 1467              		.loc 1 372 39 is_stmt 1 discriminator 1 view .LVU391
 1468 019a 022B     		cmp	r3, #2
 1469 019c F0D9     		bls	.L94
 1470              	.LBE19:
 374:modules/BMI088/bmi088.c ****                     gyroDiff[0] > 0.15f ||
 1471              		.loc 1 374 17 view .LVU392
 374:modules/BMI088/bmi088.c ****                     gyroDiff[0] > 0.15f ||
 1472              		.loc 1 374 20 is_stmt 0 view .LVU393
 1473 019e F6EE007A 		vmov.f32	s15, #5.0e-1
 1474 01a2 F4EEE79A 		vcmpe.f32	s19, s15
 1475 01a6 F1EE10FA 		vmrs	APSR_nzcv, FPSCR
 1476 01aa 2FDC     		bgt	.L95
 374:modules/BMI088/bmi088.c ****                     gyroDiff[0] > 0.15f ||
 1477              		.loc 1 374 38 discriminator 1 view .LVU394
 1478 01ac 9DED067A 		vldr.32	s14, [sp, #24]
 1479 01b0 DFED5C7A 		vldr.32	s15, .L115+20
 1480 01b4 B4EEE77A 		vcmpe.f32	s14, s15
 1481 01b8 F1EE10FA 		vmrs	APSR_nzcv, FPSCR
 1482 01bc 26DC     		bgt	.L95
 375:modules/BMI088/bmi088.c ****                     gyroDiff[1] > 0.15f ||
 1483              		.loc 1 375 41 view .LVU395
 1484 01be 9DED077A 		vldr.32	s14, [sp, #28]
 1485 01c2 B4EEE77A 		vcmpe.f32	s14, s15
 1486 01c6 F1EE10FA 		vmrs	APSR_nzcv, FPSCR
 1487 01ca 1FDC     		bgt	.L95
 376:modules/BMI088/bmi088.c ****                     gyroDiff[2] > 0.15f)
 1488              		.loc 1 376 41 view .LVU396
 1489 01cc 9DED087A 		vldr.32	s14, [sp, #32]
 1490 01d0 B4EEE77A 		vcmpe.f32	s14, s15
 1491 01d4 F1EE10FA 		vmrs	APSR_nzcv, FPSCR
 1492 01d8 18DC     		bgt	.L95
 379:modules/BMI088/bmi088.c ****             }
 1493              		.loc 1 379 17 is_stmt 1 view .LVU397
 1494 01da 9FED510A 		vldr.32	s0, .L115+16
 1495              	.LVL135:
 379:modules/BMI088/bmi088.c ****             }
 1496              		.loc 1 379 17 is_stmt 0 view .LVU398
 1497 01de FFF7FEFF 		bl	DWT_Delay
 1498              	.LVL136:
 343:modules/BMI088/bmi088.c ****             {
 1499              		.loc 1 343 49 is_stmt 1 discriminator 2 view .LVU399
ARM GAS  C:\Users\29237\AppData\Local\Temp\ccJtdqFt.s 			page 40


 1500 01e2 0135     		adds	r5, r5, #1
 1501              	.LVL137:
 343:modules/BMI088/bmi088.c ****             {
 1502              		.loc 1 343 49 is_stmt 0 discriminator 2 view .LVU400
 1503 01e4 ADB2     		uxth	r5, r5
 1504              	.LVL138:
 1505              	.L76:
 343:modules/BMI088/bmi088.c ****             {
 1506              		.loc 1 343 36 is_stmt 1 discriminator 1 view .LVU401
 1507 01e6 41F26F73 		movw	r3, #5999
 1508 01ea 9D42     		cmp	r5, r3
 1509 01ec 0ED8     		bhi	.L95
 345:modules/BMI088/bmi088.c ****                 gNormTemp = NormOf3d(raw_data.acc);
 1510              		.loc 1 345 17 view .LVU402
 1511 01ee 09A9     		add	r1, sp, #36
 1512 01f0 2046     		mov	r0, r4
 1513 01f2 FFF7FEFF 		bl	BMI088Acquire
 1514              	.LVL139:
 346:modules/BMI088/bmi088.c ****                 _bmi088->gNorm += gNormTemp; // ËÆ°ÁÆóËåÉÊï∞Âπ∂Á¥ØÂä†,ÊúÄÂêéÈô§‰ª•calib timesËé∑Âèñ
 1515              		.loc 1 346 17 view .LVU403
 346:modules/BMI088/bmi088.c ****                 _bmi088->gNorm += gNormTemp; // ËÆ°ÁÆóËåÉÊï∞Âπ∂Á¥ØÂä†,ÊúÄÂêéÈô§‰ª•calib timesËé∑Âèñ
 1516              		.loc 1 346 29 is_stmt 0 view .LVU404
 1517 01f6 0CA8     		add	r0, sp, #48
 1518 01f8 FFF7FEFF 		bl	NormOf3d
 1519              	.LVL140:
 347:modules/BMI088/bmi088.c ****                 for (uint8_t ii = 0; ii < 3; ii++)
 1520              		.loc 1 347 17 is_stmt 1 view .LVU405
 347:modules/BMI088/bmi088.c ****                 for (uint8_t ii = 0; ii < 3; ii++)
 1521              		.loc 1 347 24 is_stmt 0 view .LVU406
 1522 01fc D4ED2F7A 		vldr.32	s15, [r4, #188]
 347:modules/BMI088/bmi088.c ****                 for (uint8_t ii = 0; ii < 3; ii++)
 1523              		.loc 1 347 32 view .LVU407
 1524 0200 77EE807A 		vadd.f32	s15, s15, s0
 1525 0204 C4ED2F7A 		vstr.32	s15, [r4, #188]
 348:modules/BMI088/bmi088.c ****                     _bmi088->gyro_offset[ii] += raw_data.gyro[ii]; // Âõ†‰∏∫Ê†áÂÆöÊó∂‰º†ÊÑüÂô®ÈùôÊ≠
 1526              		.loc 1 348 17 is_stmt 1 view .LVU408
 1527              	.LBB20:
 348:modules/BMI088/bmi088.c ****                     _bmi088->gyro_offset[ii] += raw_data.gyro[ii]; // Âõ†‰∏∫Ê†áÂÆöÊó∂‰º†ÊÑüÂô®ÈùôÊ≠
 1528              		.loc 1 348 22 view .LVU409
 1529              	.LVL141:
 348:modules/BMI088/bmi088.c ****                     _bmi088->gyro_offset[ii] += raw_data.gyro[ii]; // Âõ†‰∏∫Ê†áÂÆöÊó∂‰º†ÊÑüÂô®ÈùôÊ≠
 1530              		.loc 1 348 30 is_stmt 0 view .LVU410
 1531 0208 3346     		mov	r3, r6
 348:modules/BMI088/bmi088.c ****                     _bmi088->gyro_offset[ii] += raw_data.gyro[ii]; // Âõ†‰∏∫Ê†áÂÆöÊó∂‰º†ÊÑüÂô®ÈùôÊ≠
 1532              		.loc 1 348 17 view .LVU411
 1533 020a 64E7     		b	.L77
 1534              	.LVL142:
 1535              	.L95:
 348:modules/BMI088/bmi088.c ****                     _bmi088->gyro_offset[ii] += raw_data.gyro[ii]; // Âõ†‰∏∫Ê†áÂÆöÊó∂‰º†ÊÑüÂô®ÈùôÊ≠
 1536              		.loc 1 348 17 view .LVU412
 1537              	.LBE20:
 1538              	.LBE12:
 381:modules/BMI088/bmi088.c ****             for (uint8_t i = 0; i < 3; ++i)
 1539              		.loc 1 381 13 is_stmt 1 view .LVU413
 381:modules/BMI088/bmi088.c ****             for (uint8_t i = 0; i < 3; ++i)
 1540              		.loc 1 381 20 is_stmt 0 view .LVU414
 1541 020c 94ED2F7A 		vldr.32	s14, [r4, #188]
ARM GAS  C:\Users\29237\AppData\Local\Temp\ccJtdqFt.s 			page 41


 381:modules/BMI088/bmi088.c ****             for (uint8_t i = 0; i < 3; ++i)
 1542              		.loc 1 381 28 view .LVU415
 1543 0210 DFED457A 		vldr.32	s15, .L115+24
 1544 0214 87EE276A 		vdiv.f32	s12, s14, s15
 1545 0218 84ED2F6A 		vstr.32	s12, [r4, #188]
 382:modules/BMI088/bmi088.c ****                 _bmi088->gyro_offset[i] /= (float)CaliTimes; // ‰∏âËΩ¥Èõ∂È£ò
 1546              		.loc 1 382 13 is_stmt 1 view .LVU416
 1547              	.LBB21:
 382:modules/BMI088/bmi088.c ****                 _bmi088->gyro_offset[i] /= (float)CaliTimes; // ‰∏âËΩ¥Èõ∂È£ò
 1548              		.loc 1 382 18 view .LVU417
 1549              	.LVL143:
 382:modules/BMI088/bmi088.c ****                 _bmi088->gyro_offset[i] /= (float)CaliTimes; // ‰∏âËΩ¥Èõ∂È£ò
 1550              		.loc 1 382 26 is_stmt 0 view .LVU418
 1551 021c 3346     		mov	r3, r6
 1552              	.LVL144:
 1553              	.L97:
 382:modules/BMI088/bmi088.c ****                 _bmi088->gyro_offset[i] /= (float)CaliTimes; // ‰∏âËΩ¥Èõ∂È£ò
 1554              		.loc 1 382 35 is_stmt 1 discriminator 1 view .LVU419
 1555 021e 022B     		cmp	r3, #2
 1556 0220 0ED8     		bhi	.L114
 383:modules/BMI088/bmi088.c ****             // ËøôÈáåÁõ¥Êé•Â≠òÂà∞temperature,ÂèØ‰ª•Âè¶Â§ñÂ¢ûÂä†BMI088InstanceÁöÑÊàêÂëòÂèòÈáèTempWhe
 1557              		.loc 1 383 17 view .LVU420
 383:modules/BMI088/bmi088.c ****             // ËøôÈáåÁõ¥Êé•Â≠òÂà∞temperature,ÂèØ‰ª•Âè¶Â§ñÂ¢ûÂä†BMI088InstanceÁöÑÊàêÂëòÂèòÈáèTempWhe
 1558              		.loc 1 383 37 is_stmt 0 view .LVU421
 1559 0222 03F12C02 		add	r2, r3, #44
 1560 0226 04EB8202 		add	r2, r4, r2, lsl #2
 1561 022a D2ED006A 		vldr.32	s13, [r2]
 383:modules/BMI088/bmi088.c ****             // ËøôÈáåÁõ¥Êé•Â≠òÂà∞temperature,ÂèØ‰ª•Âè¶Â§ñÂ¢ûÂä†BMI088InstanceÁöÑÊàêÂëòÂèòÈáèTempWhe
 1562              		.loc 1 383 41 view .LVU422
 1563 022e 9FED3E7A 		vldr.32	s14, .L115+24
 1564 0232 C6EE877A 		vdiv.f32	s15, s13, s14
 1565 0236 C2ED007A 		vstr.32	s15, [r2]
 382:modules/BMI088/bmi088.c ****                 _bmi088->gyro_offset[i] /= (float)CaliTimes; // ‰∏âËΩ¥Èõ∂È£ò
 1566              		.loc 1 382 40 is_stmt 1 discriminator 3 view .LVU423
 1567 023a 0133     		adds	r3, r3, #1
 1568              	.LVL145:
 382:modules/BMI088/bmi088.c ****                 _bmi088->gyro_offset[i] /= (float)CaliTimes; // ‰∏âËΩ¥Èõ∂È£ò
 1569              		.loc 1 382 40 is_stmt 0 discriminator 3 view .LVU424
 1570 023c DBB2     		uxtb	r3, r3
 1571              	.LVL146:
 382:modules/BMI088/bmi088.c ****                 _bmi088->gyro_offset[i] /= (float)CaliTimes; // ‰∏âËΩ¥Èõ∂È£ò
 1572              		.loc 1 382 40 discriminator 3 view .LVU425
 1573 023e EEE7     		b	.L97
 1574              	.LVL147:
 1575              	.L114:
 382:modules/BMI088/bmi088.c ****                 _bmi088->gyro_offset[i] /= (float)CaliTimes; // ‰∏âËΩ¥Èõ∂È£ò
 1576              		.loc 1 382 40 discriminator 3 view .LVU426
 1577              	.LBE21:
 385:modules/BMI088/bmi088.c ****             // caliTryOutCount++; ‰øùÂ≠òÂ∑≤ÁªèÂ∞ùËØïÁöÑÊ†áÂÆöÊ¨°Êï∞?Áî±‰Ω†.
 1578              		.loc 1 385 13 is_stmt 1 view .LVU427
 385:modules/BMI088/bmi088.c ****             // caliTryOutCount++; ‰øùÂ≠òÂ∑≤ÁªèÂ∞ùËØïÁöÑÊ†áÂÆöÊ¨°Êï∞?Áî±‰Ω†.
 1579              		.loc 1 385 57 is_stmt 0 view .LVU428
 1580 0240 DDED0F7A 		vldr.32	s15, [sp, #60]
 1581 0244 B4EE007A 		vmov.f32	s14, #1.25e-1
 1582 0248 67EE877A 		vmul.f32	s15, s15, s14
 385:modules/BMI088/bmi088.c ****             // caliTryOutCount++; ‰øùÂ≠òÂ∑≤ÁªèÂ∞ùËØïÁöÑÊ†áÂÆöÊ¨°Êï∞?Áî±‰Ω†.
 1583              		.loc 1 385 78 view .LVU429
ARM GAS  C:\Users\29237\AppData\Local\Temp\ccJtdqFt.s 			page 42


 1584 024c B3EE077A 		vmov.f32	s14, #2.3e+1
 1585 0250 77EE877A 		vadd.f32	s15, s15, s14
 385:modules/BMI088/bmi088.c ****             // caliTryOutCount++; ‰øùÂ≠òÂ∑≤ÁªèÂ∞ùËØïÁöÑÊ†áÂÆöÊ¨°Êï∞?Áî±‰Ω†.
 1586              		.loc 1 385 34 view .LVU430
 1587 0254 C4ED2B7A 		vstr.32	s15, [r4, #172]
 393:modules/BMI088/bmi088.c ****                  fabsf(_bmi088->gyro_offset[2]) > 0.01f); // Êª°Ë∂≥Êù°‰ª∂ËØ¥ÊòéÊ†áÂÆöÁéØÂ¢É‰∏çÂ•Ω
 1588              		.loc 1 393 57 is_stmt 1 view .LVU431
 1589 0258 F6EE007A 		vmov.f32	s15, #5.0e-1
 1590 025c F4EEE79A 		vcmpe.f32	s19, s15
 1591 0260 F1EE10FA 		vmrs	APSR_nzcv, FPSCR
 1592 0264 3FF700AF 		bgt	.L99
 388:modules/BMI088/bmi088.c ****                  gyroDiff[0] > 0.15f ||
 1593              		.loc 1 388 39 is_stmt 0 view .LVU432
 1594 0268 DFED307A 		vldr.32	s15, .L115+28
 1595 026c 76EE677A 		vsub.f32	s15, s12, s15
 388:modules/BMI088/bmi088.c ****                  gyroDiff[0] > 0.15f ||
 1596              		.loc 1 388 18 view .LVU433
 1597 0270 F0EEE77A 		vabs.f32	s15, s15
 387:modules/BMI088/bmi088.c ****                  fabsf(_bmi088->gNorm - 9.8f) > 0.5f ||
 1598              		.loc 1 387 35 view .LVU434
 1599 0274 B6EE007A 		vmov.f32	s14, #5.0e-1
 1600 0278 F4EEC77A 		vcmpe.f32	s15, s14
 1601 027c F1EE10FA 		vmrs	APSR_nzcv, FPSCR
 1602 0280 3FF7F2AE 		bgt	.L99
 388:modules/BMI088/bmi088.c ****                  gyroDiff[0] > 0.15f ||
 1603              		.loc 1 388 54 view .LVU435
 1604 0284 9DED067A 		vldr.32	s14, [sp, #24]
 1605 0288 DFED267A 		vldr.32	s15, .L115+20
 1606 028c B4EEE77A 		vcmpe.f32	s14, s15
 1607 0290 F1EE10FA 		vmrs	APSR_nzcv, FPSCR
 1608 0294 3FF7E8AE 		bgt	.L99
 389:modules/BMI088/bmi088.c ****                  gyroDiff[1] > 0.15f ||
 1609              		.loc 1 389 38 view .LVU436
 1610 0298 9DED077A 		vldr.32	s14, [sp, #28]
 1611 029c B4EEE77A 		vcmpe.f32	s14, s15
 1612 02a0 F1EE10FA 		vmrs	APSR_nzcv, FPSCR
 1613 02a4 3FF7E0AE 		bgt	.L99
 390:modules/BMI088/bmi088.c ****                  gyroDiff[2] > 0.15f ||
 1614              		.loc 1 390 38 view .LVU437
 1615 02a8 9DED087A 		vldr.32	s14, [sp, #32]
 1616 02ac B4EEE77A 		vcmpe.f32	s14, s15
 1617 02b0 F1EE10FA 		vmrs	APSR_nzcv, FPSCR
 1618 02b4 3FF7D8AE 		bgt	.L99
 392:modules/BMI088/bmi088.c ****                  fabsf(_bmi088->gyro_offset[1]) > 0.01f ||
 1619              		.loc 1 392 44 view .LVU438
 1620 02b8 D4ED2C7A 		vldr.32	s15, [r4, #176]
 392:modules/BMI088/bmi088.c ****                  fabsf(_bmi088->gyro_offset[1]) > 0.01f ||
 1621              		.loc 1 392 18 view .LVU439
 1622 02bc F0EEE77A 		vabs.f32	s15, s15
 391:modules/BMI088/bmi088.c ****                  fabsf(_bmi088->gyro_offset[0]) > 0.01f ||
 1623              		.loc 1 391 38 view .LVU440
 1624 02c0 9FED1B7A 		vldr.32	s14, .L115+32
 1625 02c4 F4EEC77A 		vcmpe.f32	s15, s14
 1626 02c8 F1EE10FA 		vmrs	APSR_nzcv, FPSCR
 1627 02cc 3FF7CCAE 		bgt	.L99
 393:modules/BMI088/bmi088.c ****                  fabsf(_bmi088->gyro_offset[2]) > 0.01f); // Êª°Ë∂≥Êù°‰ª∂ËØ¥ÊòéÊ†áÂÆöÁéØÂ¢É‰∏çÂ•Ω
 1628              		.loc 1 393 44 view .LVU441
ARM GAS  C:\Users\29237\AppData\Local\Temp\ccJtdqFt.s 			page 43


 1629 02d0 D4ED2D7A 		vldr.32	s15, [r4, #180]
 393:modules/BMI088/bmi088.c ****                  fabsf(_bmi088->gyro_offset[2]) > 0.01f); // Êª°Ë∂≥Êù°‰ª∂ËØ¥ÊòéÊ†áÂÆöÁéØÂ¢É‰∏çÂ•Ω
 1630              		.loc 1 393 18 view .LVU442
 1631 02d4 F0EEE77A 		vabs.f32	s15, s15
 392:modules/BMI088/bmi088.c ****                  fabsf(_bmi088->gyro_offset[1]) > 0.01f ||
 1632              		.loc 1 392 57 view .LVU443
 1633 02d8 F4EEC77A 		vcmpe.f32	s15, s14
 1634 02dc F1EE10FA 		vmrs	APSR_nzcv, FPSCR
 1635 02e0 3FF7C2AE 		bgt	.L99
 394:modules/BMI088/bmi088.c ****     }
 1636              		.loc 1 394 44 view .LVU444
 1637 02e4 D4ED2E7A 		vldr.32	s15, [r4, #184]
 394:modules/BMI088/bmi088.c ****     }
 1638              		.loc 1 394 18 view .LVU445
 1639 02e8 F0EEE77A 		vabs.f32	s15, s15
 393:modules/BMI088/bmi088.c ****                  fabsf(_bmi088->gyro_offset[2]) > 0.01f); // Êª°Ë∂≥Êù°‰ª∂ËØ¥ÊòéÊ†áÂÆöÁéØÂ¢É‰∏çÂ•Ω
 1640              		.loc 1 393 57 view .LVU446
 1641 02ec F4EEC77A 		vcmpe.f32	s15, s14
 1642 02f0 F1EE10FA 		vmrs	APSR_nzcv, FPSCR
 1643 02f4 3FF7B8AE 		bgt	.L99
 1644 02f8 89E6     		b	.L70
 1645              	.LVL148:
 1646              	.L111:
 393:modules/BMI088/bmi088.c ****                  fabsf(_bmi088->gyro_offset[2]) > 0.01f); // Êª°Ë∂≥Êù°‰ª∂ËØ¥ÊòéÊ†áÂÆöÁéØÂ¢É‰∏çÂ•Ω
 1647              		.loc 1 393 57 view .LVU447
 1648              	.LBE9:
 400:modules/BMI088/bmi088.c ****         _bmi088->gyro_offset[1] = BMI088_PRE_CALI_ACC_Y_OFFSET;
 1649              		.loc 1 400 9 is_stmt 1 view .LVU448
 400:modules/BMI088/bmi088.c ****         _bmi088->gyro_offset[1] = BMI088_PRE_CALI_ACC_Y_OFFSET;
 1650              		.loc 1 400 33 is_stmt 0 view .LVU449
 1651 02fa 0023     		movs	r3, #0
 1652 02fc C4F8B030 		str	r3, [r4, #176]	@ float
 401:modules/BMI088/bmi088.c ****         _bmi088->gyro_offset[2] = BMI088_PRE_CALI_ACC_Z_OFFSET;
 1653              		.loc 1 401 9 is_stmt 1 view .LVU450
 401:modules/BMI088/bmi088.c ****         _bmi088->gyro_offset[2] = BMI088_PRE_CALI_ACC_Z_OFFSET;
 1654              		.loc 1 401 33 is_stmt 0 view .LVU451
 1655 0300 C4F8B430 		str	r3, [r4, #180]	@ float
 402:modules/BMI088/bmi088.c ****         _bmi088->gNorm = BMI088_PRE_CALI_G_NORM;
 1656              		.loc 1 402 9 is_stmt 1 view .LVU452
 402:modules/BMI088/bmi088.c ****         _bmi088->gNorm = BMI088_PRE_CALI_G_NORM;
 1657              		.loc 1 402 33 is_stmt 0 view .LVU453
 1658 0304 C4F8B830 		str	r3, [r4, #184]	@ float
 403:modules/BMI088/bmi088.c ****     }
 1659              		.loc 1 403 9 is_stmt 1 view .LVU454
 403:modules/BMI088/bmi088.c ****     }
 1660              		.loc 1 403 24 is_stmt 0 view .LVU455
 1661 0308 0A4B     		ldr	r3, .L115+36
 1662 030a C4F8BC30 		str	r3, [r4, #188]	@ float
 1663 030e 82E6     		b	.L100
 1664              	.L116:
 1665              		.align	3
 1666              	.L115:
 1667 0310 85EB51B8 		.word	-1202590843
 1668 0314 1E052840 		.word	1076364574
 1669 0318 3333EB3A 		.word	988492595
 1670 031c 58A08B3A 		.word	982229080
 1671 0320 6F12033A 		.word	973279855
ARM GAS  C:\Users\29237\AppData\Local\Temp\ccJtdqFt.s 			page 44


 1672 0324 9A99193E 		.word	1041865114
 1673 0328 0080BB45 		.word	1169915904
 1674 032c CDCC1C41 		.word	1092406477
 1675 0330 0AD7233C 		.word	1008981770
 1676 0334 48E11C41 		.word	1092411720
 1677 0338 5C8FC2F5 		.word	-171798692
 1678 033c 289C2340 		.word	1076075560
 1679              		.cfi_endproc
 1680              	.LFE287:
 1682              		.section	.text.BMI088Register,"ax",%progbits
 1683              		.align	1
 1684              		.global	BMI088Register
 1685              		.syntax unified
 1686              		.thumb
 1687              		.thumb_func
 1689              	BMI088Register:
 1690              	.LVL149:
 1691              	.LFB288:
 407:modules/BMI088/bmi088.c **** 
 408:modules/BMI088/bmi088.c **** // ËÄÉËôëÈòªÂ°ûÊ®°ÂºèÂíåÈùûÈòªÂ°ûÊ®°ÂºèÁöÑÂÖºÂÆπÊÄß,ÈÄöËøáÊù°‰ª∂ÁºñËØë(ÂàôÈúÄË¶ÅÂú®ÁºñËØëÂâç‰øÆÊîπÂ
 409:modules/BMI088/bmi088.c **** // runtimeÁöÑÂºÄÈîÄ‰∏çÂ§ß(‰∏ÄÊ¨°ÊÄßÂà§Êñ≠),‰ΩÜÊòØÈúÄË¶Å‰øÆÊîπÂáΩÊï∞ÂéüÂûã,Â¢ûÂä†ÂèÇÊï∞,‰ª£Á†ÅÈïøÂ∫¶
 410:modules/BMI088/bmi088.c **** // runtimeÂ¶Ç‰Ωï‰øÆÊîπcallback?Ê†πÊçÆÂèÇÊï∞ÈÄâÊã©ÊòØÂê¶Áªôspi‰º†ÂÖ•callback,Â¶ÇÊûúÊòØÈòªÂ°ûÊ®°Âºè,Â
 411:modules/BMI088/bmi088.c **** // Êù°‰ª∂ÁºñËØëÁöÑÂºÄÈîÄÂ∞è,‰ΩÜÊòØÈúÄË¶Å‰øÆÊîπÂÆèÂÆö‰πâ,Â¢ûÂä†ÁºñËØëÊó∂Èó¥,ÂêåÊó∂‰∫∫Âäõ‰ªãÂÖ•
 412:modules/BMI088/bmi088.c **** // Ê†πÊçÆÂÆûÈôÖÊÉÖÂÜµÈÄâÊã©(ËØ¥‰∫ÜÂíåÊ≤°ËØ¥‰∏ÄÊ†∑!)
 413:modules/BMI088/bmi088.c **** 
 414:modules/BMI088/bmi088.c **** BMI088Instance *BMI088Register(BMI088_Init_Config_s *config)
 415:modules/BMI088/bmi088.c **** {
 1692              		.loc 1 415 1 is_stmt 1 view -0
 1693              		.cfi_startproc
 1694              		@ args = 0, pretend = 0, frame = 0
 1695              		@ frame_needed = 0, uses_anonymous_args = 0
 1696              		.loc 1 415 1 is_stmt 0 view .LVU457
 1697 0000 70B5     		push	{r4, r5, r6, lr}
 1698              	.LCFI29:
 1699              		.cfi_def_cfa_offset 16
 1700              		.cfi_offset 4, -16
 1701              		.cfi_offset 5, -12
 1702              		.cfi_offset 6, -8
 1703              		.cfi_offset 14, -4
 1704 0002 0646     		mov	r6, r0
 416:modules/BMI088/bmi088.c ****     // Áî≥ËØ∑ÂÜÖÂ≠ò
 417:modules/BMI088/bmi088.c ****     BMI088Instance *bmi088_instance = (BMI088Instance *)zmalloc(sizeof(BMI088Instance));
 1705              		.loc 1 417 5 is_stmt 1 view .LVU458
 1706              		.loc 1 417 57 is_stmt 0 view .LVU459
 1707 0004 D820     		movs	r0, #216
 1708              	.LVL150:
 1709              		.loc 1 417 57 view .LVU460
 1710 0006 FFF7FEFF 		bl	zmalloc
 1711              	.LVL151:
 1712 000a 0546     		mov	r5, r0
 1713              	.LVL152:
 418:modules/BMI088/bmi088.c ****     // ‰ªéÂè≥ÂêëÂ∑¶ËµãÂÄº,ËÆ©bsp instance‰øùÂ≠òÊåáÂêëbmi088_instanceÁöÑÊåáÈíà(Áà∂ÊåáÈíà),‰æø‰∫éÂú®Â
 419:modules/BMI088/bmi088.c ****     config->acc_int_config.id =
 1714              		.loc 1 419 5 is_stmt 1 view .LVU461
 420:modules/BMI088/bmi088.c ****         config->gyro_int_config.id =
 421:modules/BMI088/bmi088.c ****             config->spi_acc_config.id =
 422:modules/BMI088/bmi088.c ****                 config->spi_gyro_config.id =
ARM GAS  C:\Users\29237\AppData\Local\Temp\ccJtdqFt.s 			page 45


 423:modules/BMI088/bmi088.c ****                     config->heat_pwm_config.id = bmi088_instance;
 1715              		.loc 1 423 48 is_stmt 0 view .LVU462
 1716 000c C6F88C00 		str	r0, [r6, #140]
 422:modules/BMI088/bmi088.c ****                     config->heat_pwm_config.id = bmi088_instance;
 1717              		.loc 1 422 44 view .LVU463
 1718 0010 7061     		str	r0, [r6, #20]
 421:modules/BMI088/bmi088.c ****                 config->spi_gyro_config.id =
 1719              		.loc 1 421 39 view .LVU464
 1720 0012 B062     		str	r0, [r6, #40]
 420:modules/BMI088/bmi088.c ****         config->gyro_int_config.id =
 1721              		.loc 1 420 36 view .LVU465
 1722 0014 B063     		str	r0, [r6, #56]
 419:modules/BMI088/bmi088.c ****         config->gyro_int_config.id =
 1723              		.loc 1 419 31 view .LVU466
 1724 0016 B064     		str	r0, [r6, #72]
 424:modules/BMI088/bmi088.c ****     // @todo:
 425:modules/BMI088/bmi088.c ****     // ÁõÆÂâçÂè™ÂÆûÁé∞‰∫Ü!!!ÈòªÂ°ûËØªÂèñÊ®°Âºè!!!.Â¶ÇÊûúÈúÄË¶Å‰ΩøÁî®ITÊ®°Âºè,ÂàôÈúÄË¶Å‰øÆÊîπËøôÈáåÁ
 426:modules/BMI088/bmi088.c ****     // ËøòÈúÄË¶ÅËÆæÁΩÆSPIÁöÑ‰º†ËæìÊ®°Âºè‰∏∫DMAÊ®°ÂºèÊàñITÊ®°Âºè(ÈªòËÆ§‰∏∫blocking)
 427:modules/BMI088/bmi088.c ****     // ÂèØ‰ª•ÈÄöËøáconditional compilationÊàñËÄÖruntimeÂèÇÊï∞Âà§Êñ≠
 428:modules/BMI088/bmi088.c ****     // code to go here ...
 429:modules/BMI088/bmi088.c **** 
 430:modules/BMI088/bmi088.c ****     // INT_ACC EXTI CALLBACK: Ê£ÄÊü•ÊòØÂê¶Êúâ‰º†ËæìÊ≠£Âú®ËøõË°å,Â¶ÇÊûúÊ≤°ÊúâÂàôÂºÄÂêØSPI DMA‰º†Ëæì,
 431:modules/BMI088/bmi088.c ****     // Á¨¨‰∏ÄÊ¨°ÊòØÂä†ÈÄüÂ∫¶ËÆ°,Á¨¨‰∫åÊ¨°ÊòØÊ∏©Â∫¶.
 432:modules/BMI088/bmi088.c **** 
 433:modules/BMI088/bmi088.c ****     // INT_GYRO EXTI CALLBACK: ÂºÄÂêØSPI DMA‰º†Ëæì,‰∏ç‰ºöÂá∫Áé∞Á≠âÂæÖ‰º†ËæìÁöÑÊÉÖÂÜµ
 434:modules/BMI088/bmi088.c ****     // SPI_GYRO DMA CALLBACK: Ëß£ÁÆóÈôÄËû∫‰ª™Êï∞ÊçÆ,
 435:modules/BMI088/bmi088.c ****     // SPI_ACC DMA CALLBACK: Ëß£ÁÆóÂä†ÈÄüÂ∫¶ËÆ°Êï∞ÊçÆ,Ê∏ÖÈô§Ê∏©Â∫¶waitÊ†áÂøó‰ΩçÂπ∂ÂêØÂä®Ê∏©Â∫¶‰º†Ëæ
 436:modules/BMI088/bmi088.c **** 
 437:modules/BMI088/bmi088.c ****     // ËøòÊúâÂÖ∂‰ªñÊñπÊ°àÂèØÁî®,ÊØîÂ¶ÇÈòªÂ°ûÁ≠âÂæÖ‰º†ËæìÂÆåÊàê,‰ΩÜÊòØÊØîËæÉÁ¨®.
 438:modules/BMI088/bmi088.c ****         config->spi_acc_config.spi_work_mode = SPI_BLOCK_MODE;
 1725              		.loc 1 438 9 is_stmt 1 view .LVU467
 1726              		.loc 1 438 46 is_stmt 0 view .LVU468
 1727 0018 0023     		movs	r3, #0
 1728 001a 86F82230 		strb	r3, [r6, #34]
 439:modules/BMI088/bmi088.c ****         config->spi_gyro_config.spi_work_mode = SPI_BLOCK_MODE;
 1729              		.loc 1 439 9 is_stmt 1 view .LVU469
 1730              		.loc 1 439 47 is_stmt 0 view .LVU470
 1731 001e B373     		strb	r3, [r6, #14]
 440:modules/BMI088/bmi088.c ****     // Ê†πÊçÆÂèÇÊï∞ÈÄâÊã©Â∑•‰ΩúÊ®°Âºè
 441:modules/BMI088/bmi088.c ****     bmi088_instance->spi_acc = SPIRegister(&config->spi_acc_config);
 1732              		.loc 1 441 5 is_stmt 1 view .LVU471
 1733              		.loc 1 441 32 is_stmt 0 view .LVU472
 1734 0020 06F11800 		add	r0, r6, #24
 1735              	.LVL153:
 1736              		.loc 1 441 32 view .LVU473
 1737 0024 FFF7FEFF 		bl	SPIRegister
 1738              	.LVL154:
 1739              		.loc 1 441 30 discriminator 1 view .LVU474
 1740 0028 A860     		str	r0, [r5, #8]
 442:modules/BMI088/bmi088.c ****     bmi088_instance->spi_gyro = SPIRegister(&config->spi_gyro_config);
 1741              		.loc 1 442 5 is_stmt 1 view .LVU475
 1742              		.loc 1 442 33 is_stmt 0 view .LVU476
 1743 002a 301D     		adds	r0, r6, #4
 1744 002c FFF7FEFF 		bl	SPIRegister
 1745              	.LVL155:
 1746              		.loc 1 442 31 discriminator 1 view .LVU477
 1747 0030 6860     		str	r0, [r5, #4]
ARM GAS  C:\Users\29237\AppData\Local\Temp\ccJtdqFt.s 			page 46


 443:modules/BMI088/bmi088.c ****     bmi088_instance->heat_pwm = PWMRegister(&config->heat_pwm_config);
 1748              		.loc 1 443 5 is_stmt 1 view .LVU478
 1749              		.loc 1 443 33 is_stmt 0 view .LVU479
 1750 0032 06F17800 		add	r0, r6, #120
 1751 0036 FFF7FEFF 		bl	PWMRegister
 1752              	.LVL156:
 1753              		.loc 1 443 31 discriminator 1 view .LVU480
 1754 003a C5F89000 		str	r0, [r5, #144]
 444:modules/BMI088/bmi088.c ****     PIDInit(&bmi088_instance->heat_pid, &config->heat_pid_config);
 1755              		.loc 1 444 5 is_stmt 1 view .LVU481
 1756 003e 06F14C01 		add	r1, r6, #76
 1757 0042 05F11800 		add	r0, r5, #24
 1758 0046 FFF7FEFF 		bl	PIDInit
 1759              	.LVL157:
 445:modules/BMI088/bmi088.c **** 
 446:modules/BMI088/bmi088.c ****     // ÂàùÂßãÂåñaccÂíågyro
 447:modules/BMI088/bmi088.c ****     BMI088_ERORR_CODE_e error = BMI088_NO_ERROR;
 1760              		.loc 1 447 5 view .LVU482
 1761              	.L118:
 448:modules/BMI088/bmi088.c ****     do
 1762              		.loc 1 448 5 view .LVU483
 449:modules/BMI088/bmi088.c ****     {
 450:modules/BMI088/bmi088.c ****         error = BMI088_NO_ERROR;
 1763              		.loc 1 450 9 view .LVU484
 451:modules/BMI088/bmi088.c ****         error |= BMI088AccelInit(bmi088_instance);
 1764              		.loc 1 451 9 view .LVU485
 1765              		.loc 1 451 18 is_stmt 0 view .LVU486
 1766 004a 2846     		mov	r0, r5
 1767 004c FFF7FEFF 		bl	BMI088AccelInit
 1768              	.LVL158:
 1769 0050 0446     		mov	r4, r0
 1770              	.LVL159:
 452:modules/BMI088/bmi088.c ****         error |= BMI088GyroInit(bmi088_instance);
 1771              		.loc 1 452 9 is_stmt 1 view .LVU487
 1772              		.loc 1 452 18 is_stmt 0 view .LVU488
 1773 0052 2846     		mov	r0, r5
 1774 0054 FFF7FEFF 		bl	BMI088GyroInit
 1775              	.LVL160:
 1776              		.loc 1 452 15 discriminator 1 view .LVU489
 1777 0058 0443     		orrs	r4, r4, r0
 1778              	.LVL161:
 453:modules/BMI088/bmi088.c ****         // ÂèØ‰ª•Â¢ûÂä†try out times,Ë∂ÖÂá∫Ê¨°Êï∞ÂàôËøîÂõûÈîôËØØ
 454:modules/BMI088/bmi088.c ****     } while (error != 0);
 1779              		.loc 1 454 20 is_stmt 1 discriminator 1 view .LVU490
 1780 005a 14F0FF0F 		tst	r4, #255
 1781 005e F4D1     		bne	.L118
 455:modules/BMI088/bmi088.c **** 
 456:modules/BMI088/bmi088.c ****     bmi088_instance->work_mode = BMI088_BLOCK_PERIODIC_MODE; // ‰∏¥Êó∂ËÆæÁΩÆ‰∏∫ÈòªÂ°ûÊ®°Âºè
 1782              		.loc 1 456 5 view .LVU491
 1783              		.loc 1 456 32 is_stmt 0 view .LVU492
 1784 0060 0023     		movs	r3, #0
 1785 0062 2B70     		strb	r3, [r5]
 457:modules/BMI088/bmi088.c ****     BMI088CalibrateIMU(bmi088_instance);                     // Ê†áÂÆöaccÂíågyro
 1786              		.loc 1 457 5 is_stmt 1 view .LVU493
 1787 0064 2846     		mov	r0, r5
 1788 0066 FFF7FEFF 		bl	BMI088CalibrateIMU
 1789              	.LVL162:
ARM GAS  C:\Users\29237\AppData\Local\Temp\ccJtdqFt.s 			page 47


 458:modules/BMI088/bmi088.c ****     bmi088_instance->work_mode = config->work_mode;          // ÊÅ¢Â§çÂ∑•‰ΩúÊ®°Âºè
 1790              		.loc 1 458 5 view .LVU494
 1791              		.loc 1 458 40 is_stmt 0 view .LVU495
 1792 006a 3378     		ldrb	r3, [r6]	@ zero_extendqisi2
 1793              		.loc 1 458 32 view .LVU496
 1794 006c 2B70     		strb	r3, [r5]
 459:modules/BMI088/bmi088.c ****     if (config->work_mode == BMI088_BLOCK_TRIGGER_MODE)
 1795              		.loc 1 459 5 is_stmt 1 view .LVU497
 1796              		.loc 1 459 8 is_stmt 0 view .LVU498
 1797 006e 012B     		cmp	r3, #1
 1798 0070 01D0     		beq	.L121
 1799              	.L117:
 460:modules/BMI088/bmi088.c ****     {
 461:modules/BMI088/bmi088.c ****         bmi088_instance->spi_acc->spi_work_mode = SPI_DMA_MODE;
 462:modules/BMI088/bmi088.c ****         bmi088_instance->spi_gyro->spi_work_mode = SPI_DMA_MODE;
 463:modules/BMI088/bmi088.c ****         
 464:modules/BMI088/bmi088.c ****         // ËÆæÁΩÆÂõûË∞ÉÂáΩÊï∞
 465:modules/BMI088/bmi088.c ****         bmi088_instance->spi_acc->callback = BMI088AccSPIFinishCallback;
 466:modules/BMI088/bmi088.c ****         bmi088_instance->spi_gyro->callback = BMI088GyroSPIFinishCallback;
 467:modules/BMI088/bmi088.c ****         
 468:modules/BMI088/bmi088.c ****         bmi088_instance->acc_int = GPIORegister(&config->acc_int_config); // Âè™ÊúâÂú®ÈùûÈòªÂ°ûÊ®°Â
 469:modules/BMI088/bmi088.c ****         bmi088_instance->gyro_int = GPIORegister(&config->gyro_int_config);
 470:modules/BMI088/bmi088.c **** 
 471:modules/BMI088/bmi088.c ****         bmi088_instance->acc_int->gpio_model_callback = BMI088AccINTCallback;
 472:modules/BMI088/bmi088.c ****         bmi088_instance->gyro_int->gpio_model_callback = BMI088GyroINTCallback;
 473:modules/BMI088/bmi088.c ****     } // Ê≥®ÂÜåÂÆû‰æã
 474:modules/BMI088/bmi088.c ****     return bmi088_instance;
 475:modules/BMI088/bmi088.c **** }
 1800              		.loc 1 475 1 view .LVU499
 1801 0072 2846     		mov	r0, r5
 1802 0074 70BD     		pop	{r4, r5, r6, pc}
 1803              	.LVL163:
 1804              	.L121:
 461:modules/BMI088/bmi088.c ****         bmi088_instance->spi_gyro->spi_work_mode = SPI_DMA_MODE;
 1805              		.loc 1 461 9 is_stmt 1 view .LVU500
 461:modules/BMI088/bmi088.c ****         bmi088_instance->spi_gyro->spi_work_mode = SPI_DMA_MODE;
 1806              		.loc 1 461 24 is_stmt 0 view .LVU501
 1807 0076 AA68     		ldr	r2, [r5, #8]
 461:modules/BMI088/bmi088.c ****         bmi088_instance->spi_gyro->spi_work_mode = SPI_DMA_MODE;
 1808              		.loc 1 461 49 view .LVU502
 1809 0078 0223     		movs	r3, #2
 1810 007a 9372     		strb	r3, [r2, #10]
 462:modules/BMI088/bmi088.c ****         
 1811              		.loc 1 462 9 is_stmt 1 view .LVU503
 462:modules/BMI088/bmi088.c ****         
 1812              		.loc 1 462 24 is_stmt 0 view .LVU504
 1813 007c 6A68     		ldr	r2, [r5, #4]
 462:modules/BMI088/bmi088.c ****         
 1814              		.loc 1 462 50 view .LVU505
 1815 007e 9372     		strb	r3, [r2, #10]
 465:modules/BMI088/bmi088.c ****         bmi088_instance->spi_gyro->callback = BMI088GyroSPIFinishCallback;
 1816              		.loc 1 465 9 is_stmt 1 view .LVU506
 465:modules/BMI088/bmi088.c ****         bmi088_instance->spi_gyro->callback = BMI088GyroSPIFinishCallback;
 1817              		.loc 1 465 24 is_stmt 0 view .LVU507
 1818 0080 AB68     		ldr	r3, [r5, #8]
 465:modules/BMI088/bmi088.c ****         bmi088_instance->spi_gyro->callback = BMI088GyroSPIFinishCallback;
 1819              		.loc 1 465 44 view .LVU508
ARM GAS  C:\Users\29237\AppData\Local\Temp\ccJtdqFt.s 			page 48


 1820 0082 0B4A     		ldr	r2, .L122
 1821 0084 9A61     		str	r2, [r3, #24]
 466:modules/BMI088/bmi088.c ****         
 1822              		.loc 1 466 9 is_stmt 1 view .LVU509
 466:modules/BMI088/bmi088.c ****         
 1823              		.loc 1 466 24 is_stmt 0 view .LVU510
 1824 0086 6B68     		ldr	r3, [r5, #4]
 466:modules/BMI088/bmi088.c ****         
 1825              		.loc 1 466 45 view .LVU511
 1826 0088 0A4A     		ldr	r2, .L122+4
 1827 008a 9A61     		str	r2, [r3, #24]
 468:modules/BMI088/bmi088.c ****         bmi088_instance->gyro_int = GPIORegister(&config->gyro_int_config);
 1828              		.loc 1 468 9 is_stmt 1 view .LVU512
 468:modules/BMI088/bmi088.c ****         bmi088_instance->gyro_int = GPIORegister(&config->gyro_int_config);
 1829              		.loc 1 468 36 is_stmt 0 view .LVU513
 1830 008c 06F13C00 		add	r0, r6, #60
 1831 0090 FFF7FEFF 		bl	GPIORegister
 1832              	.LVL164:
 468:modules/BMI088/bmi088.c ****         bmi088_instance->gyro_int = GPIORegister(&config->gyro_int_config);
 1833              		.loc 1 468 34 discriminator 1 view .LVU514
 1834 0094 2861     		str	r0, [r5, #16]
 469:modules/BMI088/bmi088.c **** 
 1835              		.loc 1 469 9 is_stmt 1 view .LVU515
 469:modules/BMI088/bmi088.c **** 
 1836              		.loc 1 469 37 is_stmt 0 view .LVU516
 1837 0096 06F12C00 		add	r0, r6, #44
 1838 009a FFF7FEFF 		bl	GPIORegister
 1839              	.LVL165:
 469:modules/BMI088/bmi088.c **** 
 1840              		.loc 1 469 35 discriminator 1 view .LVU517
 1841 009e E860     		str	r0, [r5, #12]
 471:modules/BMI088/bmi088.c ****         bmi088_instance->gyro_int->gpio_model_callback = BMI088GyroINTCallback;
 1842              		.loc 1 471 9 is_stmt 1 view .LVU518
 471:modules/BMI088/bmi088.c ****         bmi088_instance->gyro_int->gpio_model_callback = BMI088GyroINTCallback;
 1843              		.loc 1 471 24 is_stmt 0 view .LVU519
 1844 00a0 2B69     		ldr	r3, [r5, #16]
 471:modules/BMI088/bmi088.c ****         bmi088_instance->gyro_int->gpio_model_callback = BMI088GyroINTCallback;
 1845              		.loc 1 471 55 view .LVU520
 1846 00a2 054A     		ldr	r2, .L122+8
 1847 00a4 9A60     		str	r2, [r3, #8]
 472:modules/BMI088/bmi088.c ****     } // Ê≥®ÂÜåÂÆû‰æã
 1848              		.loc 1 472 9 is_stmt 1 view .LVU521
 472:modules/BMI088/bmi088.c ****     } // Ê≥®ÂÜåÂÆû‰æã
 1849              		.loc 1 472 24 is_stmt 0 view .LVU522
 1850 00a6 EB68     		ldr	r3, [r5, #12]
 472:modules/BMI088/bmi088.c ****     } // Ê≥®ÂÜåÂÆû‰æã
 1851              		.loc 1 472 56 view .LVU523
 1852 00a8 044A     		ldr	r2, .L122+12
 1853 00aa 9A60     		str	r2, [r3, #8]
 474:modules/BMI088/bmi088.c **** }
 1854              		.loc 1 474 5 is_stmt 1 view .LVU524
 474:modules/BMI088/bmi088.c **** }
 1855              		.loc 1 474 12 is_stmt 0 view .LVU525
 1856 00ac E1E7     		b	.L117
 1857              	.L123:
 1858 00ae 00BF     		.align	2
 1859              	.L122:
ARM GAS  C:\Users\29237\AppData\Local\Temp\ccJtdqFt.s 			page 49


 1860 00b0 00000000 		.word	BMI088AccSPIFinishCallback
 1861 00b4 00000000 		.word	BMI088GyroSPIFinishCallback
 1862 00b8 00000000 		.word	BMI088AccINTCallback
 1863 00bc 00000000 		.word	BMI088GyroINTCallback
 1864              		.cfi_endproc
 1865              	.LFE288:
 1867              		.section	.bss.buf.0,"aw",%nobits
 1868              		.align	2
 1871              	buf.0:
 1872 0000 00000000 		.space	6
 1872      0000
 1873              		.section	.bss.bmi088.1,"aw",%nobits
 1874              		.align	2
 1877              	bmi088.1:
 1878 0000 00000000 		.space	4
 1879              		.section	.bss.buf.2,"aw",%nobits
 1880              		.align	2
 1883              	buf.2:
 1884 0000 00000000 		.space	6
 1884      0000
 1885              		.section	.bss.bmi088.3,"aw",%nobits
 1886              		.align	2
 1889              	bmi088.3:
 1890 0000 00000000 		.space	4
 1891              		.section	.bss.rx.4,"aw",%nobits
 1892              		.align	2
 1895              	rx.4:
 1896 0000 00000000 		.space	8
 1896      00000000 
 1897              		.section	.bss.tx.5,"aw",%nobits
 1898              		.align	2
 1901              	tx.5:
 1902 0000 00000000 		.space	8
 1902      00000000 
 1903              		.section	.bss.rx.6,"aw",%nobits
 1904              		.align	2
 1907              	rx.6:
 1908 0000 00000000 		.space	7
 1908      000000
 1909              		.section	.data.tx.7,"aw"
 1910              		.align	2
 1913              	tx.7:
 1914 0000 8000     		.ascii	"\200\000"
 1915 0002 00000000 		.space	5
 1915      00
 1916              		.section	.bss.buf.8,"aw",%nobits
 1917              		.align	2
 1920              	buf.8:
 1921 0000 00000000 		.space	6
 1921      0000
 1922              		.section	.rodata.BMI088_Gyro_Init_Table,"a"
 1923              		.align	2
 1926              	BMI088_Gyro_Init_Table:
 1927 0000 0F0008   		.ascii	"\017\000\010"
 1928 0003 108209   		.ascii	"\020\202\011"
 1929 0006 11000A   		.ascii	"\021\000\012"
 1930 0009 15800B   		.ascii	"\025\200\013"
ARM GAS  C:\Users\29237\AppData\Local\Temp\ccJtdqFt.s 			page 50


 1931 000c 16000C   		.ascii	"\026\000\014"
 1932 000f 18010D   		.ascii	"\030\001\015"
 1933              		.section	.rodata.BMI088_Accel_Init_Table,"a"
 1934              		.align	2
 1937              	BMI088_Accel_Init_Table:
 1938 0000 7D0401   		.ascii	"}\004\001"
 1939 0003 7C0002   		.ascii	"|\000\002"
 1940 0006 40AB03   		.ascii	"@\253\003"
 1941 0009 410105   		.ascii	"A\001\005"
 1942 000c 530806   		.ascii	"S\010\006"
 1943 000f 580407   		.ascii	"X\004\007"
 1944              		.text
 1945              	.Letext0:
 1946              		.file 2 "modules/BMI088/bmi088_regNdef.h"
 1947              		.file 3 "D:/arm-gnu-toolchain-14.2.rel1-mingw-w64-x86_64-arm-none-eabi/arm-none-eabi/include/machi
 1948              		.file 4 "D:/arm-gnu-toolchain-14.2.rel1-mingw-w64-x86_64-arm-none-eabi/arm-none-eabi/include/sys/_
 1949              		.file 5 "Drivers/CMSIS/Device/ST/STM32F4xx/Include/stm32f407xx.h"
 1950              		.file 6 "D:/arm-gnu-toolchain-14.2.rel1-mingw-w64-x86_64-arm-none-eabi/lib/gcc/arm-none-eabi/14.2.
 1951              		.file 7 "Drivers/STM32F4xx_HAL_Driver/Inc/stm32f4xx_hal_def.h"
 1952              		.file 8 "Drivers/STM32F4xx_HAL_Driver/Inc/stm32f4xx_hal_gpio.h"
 1953              		.file 9 "Drivers/STM32F4xx_HAL_Driver/Inc/stm32f4xx_hal_dma.h"
 1954              		.file 10 "Drivers/STM32F4xx_HAL_Driver/Inc/stm32f4xx_hal_spi.h"
 1955              		.file 11 "Drivers/STM32F4xx_HAL_Driver/Inc/stm32f4xx_hal_tim.h"
 1956              		.file 12 "bsp/spi/bsp_spi.h"
 1957              		.file 13 "bsp/gpio/bsp_gpio.h"
 1958              		.file 14 "modules/algorithm/controller.h"
 1959              		.file 15 "bsp/pwm/bsp_pwm.h"
 1960              		.file 16 "modules/BMI088/bmi088.h"
 1961              		.file 17 "modules/daemon/daemon.h"
 1962              		.file 18 "modules/algorithm/user_lib.h"
 1963              		.file 19 "bsp/dwt/bsp_dwt.h"
 1964              		.file 20 "D:/arm-gnu-toolchain-14.2.rel1-mingw-w64-x86_64-arm-none-eabi/arm-none-eabi/include/stri
 1965              		.file 21 "<built-in>"
ARM GAS  C:\Users\29237\AppData\Local\Temp\ccJtdqFt.s 			page 51

